(dp1
S'output'
p2
S"<type 'exceptions.ImportError'> No module named appconfig"
p3
sS'layer'
p4
S'/home/janderson/web2py/applications/welcome/models/db.py'
p5
sS'code'
p6
S"# -*- coding: utf-8 -*-\n\n#########################################################################\n## This scaffolding model makes your app work on Google App Engine too\n## File is released under public domain and you can use without limitations\n#########################################################################\n\n## if SSL/HTTPS is properly configured and you want all HTTP requests to\n## be redirected to HTTPS, uncomment the line below:\n# request.requires_https()\n\n## app configuration made easy. Look inside private/appconfig.ini\nfrom gluon.contrib.appconfig import AppConfig\n## once in production, remove reload=True to gain full speed\nmyconf = AppConfig(reload=True)\n\n\nif not request.env.web2py_runtime_gae:\n    ## if NOT running on Google App Engine use SQLite or other DB\n    db = DAL(myconf.take('db.uri'), pool_size=myconf.take('db.pool_size', cast=int), check_reserved=['all'])\nelse:\n    ## connect to Google BigTable (optional 'google:datastore://namespace')\n    db = DAL('google:datastore+ndb')\n    ## store sessions and tickets there\n    session.connect(request, response, db=db)\n    ## or store session in Memcache, Redis, etc.\n    ## from gluon.contrib.memdb import MEMDB\n    ## from google.appengine.api.memcache import Client\n    ## session.connect(request, response, db = MEMDB(Client()))\n\n## by default give a view/generic.extension to all actions from localhost\n## none otherwise. a pattern can be 'controller/function.extension'\nresponse.generic_patterns = ['*'] if request.is_local else []\n## choose a style for forms\nresponse.formstyle = myconf.take('forms.formstyle')  # or 'bootstrap3_stacked' or 'bootstrap2' or other\nresponse.form_label_separator = myconf.take('forms.separator')\n\n\n## (optional) optimize handling of static files\n# response.optimize_css = 'concat,minify,inline'\n# response.optimize_js = 'concat,minify,inline'\n## (optional) static assets folder versioning\n# response.static_version = '0.0.0'\n#########################################################################\n## Here is sample code if you need for\n## - email capabilities\n## - authentication (registration, login, logout, ... )\n## - authorization (role based authorization)\n## - services (xml, csv, json, xmlrpc, jsonrpc, amf, rss)\n## - old style crud actions\n## (more options discussed in gluon/tools.py)\n#########################################################################\n\nfrom gluon.tools import Auth, Service, PluginManager\n\nauth = Auth(db)\nservice = Service()\nplugins = PluginManager()\n\n## create all tables needed by auth if not custom tables\nauth.define_tables(username=False, signature=False)\n\n## configure email\nmail = auth.settings.mailer\nmail.settings.server = 'logging' if request.is_local else myconf.take('smtp.server')\nmail.settings.sender = myconf.take('smtp.sender')\nmail.settings.login = myconf.take('smtp.login')\n\n## configure auth policy\nauth.settings.registration_requires_verification = False\nauth.settings.registration_requires_approval = False\nauth.settings.reset_password_requires_verification = True\n\n#########################################################################\n## Define your tables below (or better in another model file) for example\n##\n## >>> db.define_table('mytable',Field('myfield','string'))\n##\n## Fields can be 'string','text','password','integer','double','boolean'\n##       'date','time','datetime','blob','upload', 'reference TABLENAME'\n## There is an implicit 'id integer autoincrement' field\n## Consult manual for more options, validators, etc.\n##\n## More API examples for controllers:\n##\n## >>> db.mytable.insert(myfield='value')\n## >>> rows=db(db.mytable.myfield=='value').select(db.mytable.ALL)\n## >>> for row in rows: print row.id, row.myfield\n#########################################################################\n\n## after defining tables, uncomment below to enable auditing\n# auth.enable_record_versioning(db)\n"
p7
sS'snapshot'
p8
(dp9
S'exception'
p10
(dp11
S'__hash__'
p12
S"<method-wrapper '__hash__' of exceptions.ImportError object>"
p13
sS'__setattr__'
p14
S"<method-wrapper '__setattr__' of exceptions.ImportError object>"
p15
sS'__reduce_ex__'
p16
S'<built-in method __reduce_ex__ of exceptions.ImportError object>'
p17
sS'__getslice__'
p18
S"<method-wrapper '__getslice__' of exceptions.ImportError object>"
p19
sS'__getitem__'
p20
S"<method-wrapper '__getitem__' of exceptions.ImportError object>"
p21
sS'__setstate__'
p22
S'<built-in method __setstate__ of exceptions.ImportError object>'
p23
sS'args'
p24
S"('No module named appconfig',)"
p25
sS'__reduce__'
p26
S'<built-in method __reduce__ of exceptions.ImportError object>'
p27
sS'__str__'
p28
S"<method-wrapper '__str__' of exceptions.ImportError object>"
p29
sS'__format__'
p30
S'<built-in method __format__ of exceptions.ImportError object>'
p31
sS'__getattribute__'
p32
S"<method-wrapper '__getattribute__' of exceptions.ImportError object>"
p33
sS'__class__'
p34
S"<type 'exceptions.ImportError'>"
p35
sS'__unicode__'
p36
S'<built-in method __unicode__ of exceptions.ImportError object>'
p37
sS'__delattr__'
p38
S"<method-wrapper '__delattr__' of exceptions.ImportError object>"
p39
sS'__subclasshook__'
p40
S'<built-in method __subclasshook__ of type object>'
p41
sS'__repr__'
p42
S"<method-wrapper '__repr__' of exceptions.ImportError object>"
p43
sS'__dict__'
p44
S'{}'
p45
sS'__sizeof__'
p46
S'<built-in method __sizeof__ of exceptions.ImportError object>'
p47
sS'__doc__'
p48
S'"Import can\'t find module, or can\'t find name in module."'
p49
sS'__init__'
p50
S"<method-wrapper '__init__' of exceptions.ImportError object>"
p51
sS'__new__'
p52
S'<built-in method __new__ of type object>'
p53
ssS'evalue'
p54
S'No module named appconfig'
p55
sS'request'
p56
ccopy_reg
_reconstructor
p57
(cgluon.html
BEAUTIFY
p58
c__builtin__
object
p59
NtRp60
(dp61
S'attributes'
p62
(dp63
sS'components'
p64
(lp65
g57
(cgluon.html
TABLE
p66
g59
NtRp67
(dp68
g62
(dp69
S'level'
p70
I5
ssS'parent'
p71
Nsg64
(lp72
g57
(cgluon.html
TR
p73
g59
NtRp74
(dp75
g62
(dp76
sg71
g67
sg64
(lp77
g57
(cgluon.html
TD
p78
g59
NtRp79
(dp80
g62
(dp81
S'_style'
p82
S'font-weight:bold;vertical-align:top'
p83
ssg71
g74
sg64
(lp84
S'ajax'
p85
asbag57
(g78
g59
NtRp86
(dp87
g62
(dp88
S'_valign'
p89
S'top'
p90
ssg71
g74
sg64
(lp91
S':'
asbag57
(g78
g59
NtRp92
(dp93
g62
(dp94
sg71
g74
sg64
(lp95
g57
(g58
g59
NtRp96
(dp97
g62
(dp98
g70
I5
ssg71
g92
sg64
(lp99
S'False'
p100
asbasbasbag57
(g73
g59
NtRp101
(dp102
g62
(dp103
sg71
g67
sg64
(lp104
g57
(g78
g59
NtRp105
(dp106
g62
(dp107
g82
g83
ssg71
g101
sg64
(lp108
S'application'
p109
asbag57
(g78
g59
NtRp110
(dp111
g62
(dp112
g89
g90
ssg71
g101
sg64
(lp113
S':'
asbag57
(g78
g59
NtRp114
(dp115
g62
(dp116
sg71
g101
sg64
(lp117
g57
(g58
g59
NtRp118
(dp119
g62
(dp120
g70
I5
ssg71
g114
sg64
(lp121
S'welcome'
p122
asbasbasbag57
(g73
g59
NtRp123
(dp124
g62
(dp125
sg71
g67
sg64
(lp126
g57
(g78
g59
NtRp127
(dp128
g62
(dp129
g82
g83
ssg71
g123
sg64
(lp130
g24
asbag57
(g78
g59
NtRp131
(dp132
g62
(dp133
g89
g90
ssg71
g123
sg64
(lp134
S':'
asbag57
(g78
g59
NtRp135
(dp136
g62
(dp137
sg71
g123
sg64
(lp138
g57
(g58
g59
NtRp139
(dp140
g62
(dp141
g70
I5
ssg71
g135
sg64
(lp142
g57
(g66
g59
NtRp143
(dp144
g62
(dp145
g70
I4
ssg71
Nsg64
(lp146
sbasbasbasbag57
(g73
g59
NtRp147
(dp148
g62
(dp149
sg71
g67
sg64
(lp150
g57
(g78
g59
NtRp151
(dp152
g62
(dp153
g82
g83
ssg71
g147
sg64
(lp154
S'body'
p155
asbag57
(g78
g59
NtRp156
(dp157
g62
(dp158
g89
g90
ssg71
g147
sg64
(lp159
S':'
asbag57
(g78
g59
NtRp160
(dp161
g62
(dp162
sg71
g147
sg64
(lp163
g57
(g58
g59
NtRp164
(dp165
g62
(dp166
g70
I5
ssg71
g160
sg64
(lp167
S'<cStringIO.StringO object at 0x7fed1b94f570>'
p168
asbasbasbag57
(g73
g59
NtRp169
(dp170
g62
(dp171
sg71
g67
sg64
(lp172
g57
(g78
g59
NtRp173
(dp174
g62
(dp175
g82
g83
ssg71
g169
sg64
(lp176
S'client'
p177
asbag57
(g78
g59
NtRp178
(dp179
g62
(dp180
g89
g90
ssg71
g169
sg64
(lp181
S':'
asbag57
(g78
g59
NtRp182
(dp183
g62
(dp184
sg71
g169
sg64
(lp185
g57
(g58
g59
NtRp186
(dp187
g62
(dp188
g70
I5
ssg71
g182
sg64
(lp189
S'127.0.0.1'
p190
asbasbasbag57
(g73
g59
NtRp191
(dp192
g62
(dp193
sg71
g67
sg64
(lp194
g57
(g78
g59
NtRp195
(dp196
g62
(dp197
g82
g83
ssg71
g191
sg64
(lp198
S'controller'
p199
asbag57
(g78
g59
NtRp200
(dp201
g62
(dp202
g89
g90
ssg71
g191
sg64
(lp203
S':'
asbag57
(g78
g59
NtRp204
(dp205
g62
(dp206
sg71
g191
sg64
(lp207
g57
(g58
g59
NtRp208
(dp209
g62
(dp210
g70
I5
ssg71
g204
sg64
(lp211
S'default'
p212
asbasbasbag57
(g73
g59
NtRp213
(dp214
g62
(dp215
sg71
g67
sg64
(lp216
g57
(g78
g59
NtRp217
(dp218
g62
(dp219
g82
g83
ssg71
g213
sg64
(lp220
S'cookies'
p221
asbag57
(g78
g59
NtRp222
(dp223
g62
(dp224
g89
g90
ssg71
g213
sg64
(lp225
S':'
asbag57
(g78
g59
NtRp226
(dp227
g62
(dp228
sg71
g213
sg64
(lp229
g57
(g58
g59
NtRp230
(dp231
g62
(dp232
g70
I5
ssg71
g226
sg64
(lp233
g57
(g66
g59
NtRp234
(dp235
g62
(dp236
g70
I4
ssg71
Nsg64
(lp237
sbasbasbasbag57
(g73
g59
NtRp238
(dp239
g62
(dp240
sg71
g67
sg64
(lp241
g57
(g78
g59
NtRp242
(dp243
g62
(dp244
g82
g83
ssg71
g238
sg64
(lp245
S'env'
p246
asbag57
(g78
g59
NtRp247
(dp248
g62
(dp249
g89
g90
ssg71
g238
sg64
(lp250
S':'
asbag57
(g78
g59
NtRp251
(dp252
g62
(dp253
sg71
g238
sg64
(lp254
g57
(g58
g59
NtRp255
(dp256
g62
(dp257
g70
I5
ssg71
g251
sg64
(lp258
g57
(g66
g59
NtRp259
(dp260
g62
(dp261
g70
I4
ssg71
Nsg64
(lp262
g57
(g73
g59
NtRp263
(dp264
g62
(dp265
sg71
g259
sg64
(lp266
g57
(g78
g59
NtRp267
(dp268
g62
(dp269
g82
g83
ssg71
g263
sg64
(lp270
S'app_folders'
p271
asbag57
(g78
g59
NtRp272
(dp273
g62
(dp274
g89
g90
ssg71
g263
sg64
(lp275
S':'
asbag57
(g78
g59
NtRp276
(dp277
g62
(dp278
sg71
g263
sg64
(lp279
g57
(g58
g59
NtRp280
(dp281
g62
(dp282
g70
I4
ssg71
g276
sg64
(lp283
S"set(['/home/janderson/web2py/applications/welcome/'])"
p284
asbasbasbag57
(g73
g59
NtRp285
(dp286
g62
(dp287
sg71
g259
sg64
(lp288
g57
(g78
g59
NtRp289
(dp290
g62
(dp291
g82
g83
ssg71
g285
sg64
(lp292
S'applications_parent'
p293
asbag57
(g78
g59
NtRp294
(dp295
g62
(dp296
g89
g90
ssg71
g285
sg64
(lp297
S':'
asbag57
(g78
g59
NtRp298
(dp299
g62
(dp300
sg71
g285
sg64
(lp301
g57
(g58
g59
NtRp302
(dp303
g62
(dp304
g70
I4
ssg71
g298
sg64
(lp305
S'/home/janderson/web2py'
p306
asbasbasbag57
(g73
g59
NtRp307
(dp308
g62
(dp309
sg71
g259
sg64
(lp310
g57
(g78
g59
NtRp311
(dp312
g62
(dp313
g82
g83
ssg71
g307
sg64
(lp314
S'cmd_args'
p315
asbag57
(g78
g59
NtRp316
(dp317
g62
(dp318
g89
g90
ssg71
g307
sg64
(lp319
S':'
asbag57
(g78
g59
NtRp320
(dp321
g62
(dp322
sg71
g307
sg64
(lp323
g57
(g58
g59
NtRp324
(dp325
g62
(dp326
g70
I4
ssg71
g320
sg64
(lp327
g57
(g66
g59
NtRp328
(dp329
g62
(dp330
g70
I3
ssg71
Nsg64
(lp331
sbasbasbasbag57
(g73
g59
NtRp332
(dp333
g62
(dp334
sg71
g259
sg64
(lp335
g57
(g78
g59
NtRp336
(dp337
g62
(dp338
g82
g83
ssg71
g332
sg64
(lp339
S'cmd_options'
p340
asbag57
(g78
g59
NtRp341
(dp342
g62
(dp343
g89
g90
ssg71
g332
sg64
(lp344
S':'
asbag57
(g78
g59
NtRp345
(dp346
g62
(dp347
sg71
g332
sg64
(lp348
g57
(g58
g59
NtRp349
(dp350
g62
(dp351
g70
I4
ssg71
g345
sg64
(lp352
S"<Values at 0x7fed1c23cfc8: {'verbose': False, 'ip': '127.0.0.1', 'shutdown_timeout': 5, 'taskbar': False, 'nocron': False, 'pid_filename': 'httpserver.pid', 'maxthreads': None, 'softcron': False, 'server_name': 'Jandersolutions', 'bpython': False, 'nogui': False, 'port': 8000, 'extcron': False, 'debuglevel': 30, 'test': None, 'folder': '/home/janderson/web2py', 'config': '', 'import_models': False, 'winservice': '', 'shell': None, 'run': '', 'log_filename': 'httpserver.log', 'args': [''], 'socket_timeout': 5, 'ssl_ca_certificate': None, 'scheduler': None, 'profiler_filename': None, 'ssl_private_key': '', 'password': '<ask>', 'request_queue_size': 5, 'ssl_certificate': '', 'cronjob': False, 'numthreads': None, 'quiet': False, 'interfaces': None, 'minthreads': None, 'timeout': 10, 'plain': False, 'nobanner': False}>"
p353
asbasbasbag57
(g73
g59
NtRp354
(dp355
g62
(dp356
sg71
g259
sg64
(lp357
g57
(g78
g59
NtRp358
(dp359
g62
(dp360
g82
g83
ssg71
g354
sg64
(lp361
S'db_sessions'
p362
asbag57
(g78
g59
NtRp363
(dp364
g62
(dp365
g89
g90
ssg71
g354
sg64
(lp366
S':'
asbag57
(g78
g59
NtRp367
(dp368
g62
(dp369
sg71
g354
sg64
(lp370
g57
(g58
g59
NtRp371
(dp372
g62
(dp373
g70
I4
ssg71
g367
sg64
(lp374
S'set([])'
p375
asbasbasbag57
(g73
g59
NtRp376
(dp377
g62
(dp378
sg71
g259
sg64
(lp379
g57
(g78
g59
NtRp380
(dp381
g62
(dp382
g82
g83
ssg71
g376
sg64
(lp383
S'debugging'
p384
asbag57
(g78
g59
NtRp385
(dp386
g62
(dp387
g89
g90
ssg71
g376
sg64
(lp388
S':'
asbag57
(g78
g59
NtRp389
(dp390
g62
(dp391
sg71
g376
sg64
(lp392
g57
(g58
g59
NtRp393
(dp394
g62
(dp395
g70
I4
ssg71
g389
sg64
(lp396
g100
asbasbasbag57
(g73
g59
NtRp397
(dp398
g62
(dp399
sg71
g259
sg64
(lp400
g57
(g78
g59
NtRp401
(dp402
g62
(dp403
g82
g83
ssg71
g397
sg64
(lp404
S'gluon_parent'
p405
asbag57
(g78
g59
NtRp406
(dp407
g62
(dp408
g89
g90
ssg71
g397
sg64
(lp409
S':'
asbag57
(g78
g59
NtRp410
(dp411
g62
(dp412
sg71
g397
sg64
(lp413
g57
(g58
g59
NtRp414
(dp415
g62
(dp416
g70
I4
ssg71
g410
sg64
(lp417
S'/usr/share/web2py'
p418
asbasbasbag57
(g73
g59
NtRp419
(dp420
g62
(dp421
sg71
g259
sg64
(lp422
g57
(g78
g59
NtRp423
(dp424
g62
(dp425
g82
g83
ssg71
g419
sg64
(lp426
S'http_accept'
p427
asbag57
(g78
g59
NtRp428
(dp429
g62
(dp430
g89
g90
ssg71
g419
sg64
(lp431
S':'
asbag57
(g78
g59
NtRp432
(dp433
g62
(dp434
sg71
g419
sg64
(lp435
g57
(g58
g59
NtRp436
(dp437
g62
(dp438
g70
I4
ssg71
g432
sg64
(lp439
S'text/html,application/xhtml+xml,application/xml;q=0.9,*/*;q=0.8'
p440
asbasbasbag57
(g73
g59
NtRp441
(dp442
g62
(dp443
sg71
g259
sg64
(lp444
g57
(g78
g59
NtRp445
(dp446
g62
(dp447
g82
g83
ssg71
g441
sg64
(lp448
S'http_accept_encoding'
p449
asbag57
(g78
g59
NtRp450
(dp451
g62
(dp452
g89
g90
ssg71
g441
sg64
(lp453
S':'
asbag57
(g78
g59
NtRp454
(dp455
g62
(dp456
sg71
g441
sg64
(lp457
g57
(g58
g59
NtRp458
(dp459
g62
(dp460
g70
I4
ssg71
g454
sg64
(lp461
S'gzip, deflate'
p462
asbasbasbag57
(g73
g59
NtRp463
(dp464
g62
(dp465
sg71
g259
sg64
(lp466
g57
(g78
g59
NtRp467
(dp468
g62
(dp469
g82
g83
ssg71
g463
sg64
(lp470
S'http_accept_language'
p471
asbag57
(g78
g59
NtRp472
(dp473
g62
(dp474
g89
g90
ssg71
g463
sg64
(lp475
S':'
asbag57
(g78
g59
NtRp476
(dp477
g62
(dp478
sg71
g463
sg64
(lp479
g57
(g58
g59
NtRp480
(dp481
g62
(dp482
g70
I4
ssg71
g476
sg64
(lp483
S'en-US,en;q=0.5'
p484
asbasbasbag57
(g73
g59
NtRp485
(dp486
g62
(dp487
sg71
g259
sg64
(lp488
g57
(g78
g59
NtRp489
(dp490
g62
(dp491
g82
g83
ssg71
g485
sg64
(lp492
S'http_connection'
p493
asbag57
(g78
g59
NtRp494
(dp495
g62
(dp496
g89
g90
ssg71
g485
sg64
(lp497
S':'
asbag57
(g78
g59
NtRp498
(dp499
g62
(dp500
sg71
g485
sg64
(lp501
g57
(g58
g59
NtRp502
(dp503
g62
(dp504
g70
I4
ssg71
g498
sg64
(lp505
S'keep-alive'
p506
asbasbasbag57
(g73
g59
NtRp507
(dp508
g62
(dp509
sg71
g259
sg64
(lp510
g57
(g78
g59
NtRp511
(dp512
g62
(dp513
g82
g83
ssg71
g507
sg64
(lp514
S'http_host'
p515
asbag57
(g78
g59
NtRp516
(dp517
g62
(dp518
g89
g90
ssg71
g507
sg64
(lp519
S':'
asbag57
(g78
g59
NtRp520
(dp521
g62
(dp522
sg71
g507
sg64
(lp523
g57
(g58
g59
NtRp524
(dp525
g62
(dp526
g70
I4
ssg71
g520
sg64
(lp527
S'127.0.0.1:8000'
p528
asbasbasbag57
(g73
g59
NtRp529
(dp530
g62
(dp531
sg71
g259
sg64
(lp532
g57
(g78
g59
NtRp533
(dp534
g62
(dp535
g82
g83
ssg71
g529
sg64
(lp536
S'http_user_agent'
p537
asbag57
(g78
g59
NtRp538
(dp539
g62
(dp540
g89
g90
ssg71
g529
sg64
(lp541
S':'
asbag57
(g78
g59
NtRp542
(dp543
g62
(dp544
sg71
g529
sg64
(lp545
g57
(g58
g59
NtRp546
(dp547
g62
(dp548
g70
I4
ssg71
g542
sg64
(lp549
S'Mozilla/5.0 (X11; Ubuntu; Linux x86_64; rv:41.0) Gecko/20100101 Firefox/41.0'
p550
asbasbasbag57
(g73
g59
NtRp551
(dp552
g62
(dp553
sg71
g259
sg64
(lp554
g57
(g78
g59
NtRp555
(dp556
g62
(dp557
g82
g83
ssg71
g551
sg64
(lp558
S'is_jython'
p559
asbag57
(g78
g59
NtRp560
(dp561
g62
(dp562
g89
g90
ssg71
g551
sg64
(lp563
S':'
asbag57
(g78
g59
NtRp564
(dp565
g62
(dp566
sg71
g551
sg64
(lp567
g57
(g58
g59
NtRp568
(dp569
g62
(dp570
g70
I4
ssg71
g564
sg64
(lp571
g100
asbasbasbag57
(g73
g59
NtRp572
(dp573
g62
(dp574
sg71
g259
sg64
(lp575
g57
(g78
g59
NtRp576
(dp577
g62
(dp578
g82
g83
ssg71
g572
sg64
(lp579
S'is_pypy'
p580
asbag57
(g78
g59
NtRp581
(dp582
g62
(dp583
g89
g90
ssg71
g572
sg64
(lp584
S':'
asbag57
(g78
g59
NtRp585
(dp586
g62
(dp587
sg71
g572
sg64
(lp588
g57
(g58
g59
NtRp589
(dp590
g62
(dp591
g70
I4
ssg71
g585
sg64
(lp592
g100
asbasbasbag57
(g73
g59
NtRp593
(dp594
g62
(dp595
sg71
g259
sg64
(lp596
g57
(g78
g59
NtRp597
(dp598
g62
(dp599
g82
g83
ssg71
g593
sg64
(lp600
S'path_info'
p601
asbag57
(g78
g59
NtRp602
(dp603
g62
(dp604
g89
g90
ssg71
g593
sg64
(lp605
S':'
asbag57
(g78
g59
NtRp606
(dp607
g62
(dp608
sg71
g593
sg64
(lp609
g57
(g58
g59
NtRp610
(dp611
g62
(dp612
g70
I4
ssg71
g606
sg64
(lp613
S'/welcome/default/index'
p614
asbasbasbag57
(g73
g59
NtRp615
(dp616
g62
(dp617
sg71
g259
sg64
(lp618
g57
(g78
g59
NtRp619
(dp620
g62
(dp621
g82
g83
ssg71
g615
sg64
(lp622
S'query_string'
p623
asbag57
(g78
g59
NtRp624
(dp625
g62
(dp626
g89
g90
ssg71
g615
sg64
(lp627
S':'
asbag57
(g78
g59
NtRp628
(dp629
g62
(dp630
sg71
g615
sg64
(lp631
g57
(g58
g59
NtRp632
(dp633
g62
(dp634
g70
I4
ssg71
g628
sg64
(lp635
S''
asbasbasbag57
(g73
g59
NtRp636
(dp637
g62
(dp638
sg71
g259
sg64
(lp639
g57
(g78
g59
NtRp640
(dp641
g62
(dp642
g82
g83
ssg71
g636
sg64
(lp643
S'remote_addr'
p644
asbag57
(g78
g59
NtRp645
(dp646
g62
(dp647
g89
g90
ssg71
g636
sg64
(lp648
S':'
asbag57
(g78
g59
NtRp649
(dp650
g62
(dp651
sg71
g636
sg64
(lp652
g57
(g58
g59
NtRp653
(dp654
g62
(dp655
g70
I4
ssg71
g649
sg64
(lp656
g190
asbasbasbag57
(g73
g59
NtRp657
(dp658
g62
(dp659
sg71
g259
sg64
(lp660
g57
(g78
g59
NtRp661
(dp662
g62
(dp663
g82
g83
ssg71
g657
sg64
(lp664
S'remote_port'
p665
asbag57
(g78
g59
NtRp666
(dp667
g62
(dp668
g89
g90
ssg71
g657
sg64
(lp669
S':'
asbag57
(g78
g59
NtRp670
(dp671
g62
(dp672
sg71
g657
sg64
(lp673
g57
(g58
g59
NtRp674
(dp675
g62
(dp676
g70
I4
ssg71
g670
sg64
(lp677
S'44632'
p678
asbasbasbag57
(g73
g59
NtRp679
(dp680
g62
(dp681
sg71
g259
sg64
(lp682
g57
(g78
g59
NtRp683
(dp684
g62
(dp685
g82
g83
ssg71
g679
sg64
(lp686
S'request_method'
p687
asbag57
(g78
g59
NtRp688
(dp689
g62
(dp690
g89
g90
ssg71
g679
sg64
(lp691
S':'
asbag57
(g78
g59
NtRp692
(dp693
g62
(dp694
sg71
g679
sg64
(lp695
g57
(g58
g59
NtRp696
(dp697
g62
(dp698
g70
I4
ssg71
g692
sg64
(lp699
S'GET'
p700
asbasbasbag57
(g73
g59
NtRp701
(dp702
g62
(dp703
sg71
g259
sg64
(lp704
g57
(g78
g59
NtRp705
(dp706
g62
(dp707
g82
g83
ssg71
g701
sg64
(lp708
S'script_name'
p709
asbag57
(g78
g59
NtRp710
(dp711
g62
(dp712
g89
g90
ssg71
g701
sg64
(lp713
S':'
asbag57
(g78
g59
NtRp714
(dp715
g62
(dp716
sg71
g701
sg64
(lp717
g57
(g58
g59
NtRp718
(dp719
g62
(dp720
g70
I4
ssg71
g714
sg64
(lp721
S''
asbasbasbag57
(g73
g59
NtRp722
(dp723
g62
(dp724
sg71
g259
sg64
(lp725
g57
(g78
g59
NtRp726
(dp727
g62
(dp728
g82
g83
ssg71
g722
sg64
(lp729
S'server_name'
p730
asbag57
(g78
g59
NtRp731
(dp732
g62
(dp733
g89
g90
ssg71
g722
sg64
(lp734
S':'
asbag57
(g78
g59
NtRp735
(dp736
g62
(dp737
sg71
g722
sg64
(lp738
g57
(g58
g59
NtRp739
(dp740
g62
(dp741
g70
I4
ssg71
g735
sg64
(lp742
S'Jandersolutions'
p743
asbasbasbag57
(g73
g59
NtRp744
(dp745
g62
(dp746
sg71
g259
sg64
(lp747
g57
(g78
g59
NtRp748
(dp749
g62
(dp750
g82
g83
ssg71
g744
sg64
(lp751
S'server_port'
p752
asbag57
(g78
g59
NtRp753
(dp754
g62
(dp755
g89
g90
ssg71
g744
sg64
(lp756
S':'
asbag57
(g78
g59
NtRp757
(dp758
g62
(dp759
sg71
g744
sg64
(lp760
g57
(g58
g59
NtRp761
(dp762
g62
(dp763
g70
I4
ssg71
g757
sg64
(lp764
S'8000'
p765
asbasbasbag57
(g73
g59
NtRp766
(dp767
g62
(dp768
sg71
g259
sg64
(lp769
g57
(g78
g59
NtRp770
(dp771
g62
(dp772
g82
g83
ssg71
g766
sg64
(lp773
S'server_protocol'
p774
asbag57
(g78
g59
NtRp775
(dp776
g62
(dp777
g89
g90
ssg71
g766
sg64
(lp778
S':'
asbag57
(g78
g59
NtRp779
(dp780
g62
(dp781
sg71
g766
sg64
(lp782
g57
(g58
g59
NtRp783
(dp784
g62
(dp785
g70
I4
ssg71
g779
sg64
(lp786
S'HTTP/1.1'
p787
asbasbasbag57
(g73
g59
NtRp788
(dp789
g62
(dp790
sg71
g259
sg64
(lp791
g57
(g78
g59
NtRp792
(dp793
g62
(dp794
g82
g83
ssg71
g788
sg64
(lp795
S'server_software'
p796
asbag57
(g78
g59
NtRp797
(dp798
g62
(dp799
g89
g90
ssg71
g788
sg64
(lp800
S':'
asbag57
(g78
g59
NtRp801
(dp802
g62
(dp803
sg71
g788
sg64
(lp804
g57
(g58
g59
NtRp805
(dp806
g62
(dp807
g70
I4
ssg71
g801
sg64
(lp808
S'Rocket 1.2.4'
p809
asbasbasbag57
(g73
g59
NtRp810
(dp811
g62
(dp812
sg71
g259
sg64
(lp813
g57
(g78
g59
NtRp814
(dp815
g62
(dp816
g82
g83
ssg71
g810
sg64
(lp817
S'web2py_crontype'
p818
asbag57
(g78
g59
NtRp819
(dp820
g62
(dp821
g89
g90
ssg71
g810
sg64
(lp822
S':'
asbag57
(g78
g59
NtRp823
(dp824
g62
(dp825
sg71
g810
sg64
(lp826
g57
(g58
g59
NtRp827
(dp828
g62
(dp829
g70
I4
ssg71
g823
sg64
(lp830
S'hard'
p831
asbasbasbag57
(g73
g59
NtRp832
(dp833
g62
(dp834
sg71
g259
sg64
(lp835
g57
(g78
g59
NtRp836
(dp837
g62
(dp838
g82
g83
ssg71
g832
sg64
(lp839
S'web2py_path'
p840
asbag57
(g78
g59
NtRp841
(dp842
g62
(dp843
g89
g90
ssg71
g832
sg64
(lp844
S':'
asbag57
(g78
g59
NtRp845
(dp846
g62
(dp847
sg71
g832
sg64
(lp848
g57
(g58
g59
NtRp849
(dp850
g62
(dp851
g70
I4
ssg71
g845
sg64
(lp852
g306
asbasbasbag57
(g73
g59
NtRp853
(dp854
g62
(dp855
sg71
g259
sg64
(lp856
g57
(g78
g59
NtRp857
(dp858
g62
(dp859
g82
g83
ssg71
g853
sg64
(lp860
S'web2py_version'
p861
asbag57
(g78
g59
NtRp862
(dp863
g62
(dp864
g89
g90
ssg71
g853
sg64
(lp865
S':'
asbag57
(g78
g59
NtRp866
(dp867
g62
(dp868
sg71
g853
sg64
(lp869
g57
(g58
g59
NtRp870
(dp871
g62
(dp872
g70
I4
ssg71
g866
sg64
(lp873
g57
(g66
g59
NtRp874
(dp875
g62
(dp876
g70
I3
ssg71
Nsg64
(lp877
g57
(g73
g59
NtRp878
(dp879
g62
(dp880
sg71
g874
sg64
(lp881
g57
(g78
g59
NtRp882
(dp883
g62
(dp884
sg71
g878
sg64
(lp885
g57
(g58
g59
NtRp886
(dp887
g62
(dp888
g70
I3
ssg71
g882
sg64
(lp889
S'1'
asbasbasbag57
(g73
g59
NtRp890
(dp891
g62
(dp892
sg71
g874
sg64
(lp893
g57
(g78
g59
NtRp894
(dp895
g62
(dp896
sg71
g890
sg64
(lp897
g57
(g58
g59
NtRp898
(dp899
g62
(dp900
g70
I3
ssg71
g894
sg64
(lp901
S'99'
p902
asbasbasbag57
(g73
g59
NtRp903
(dp904
g62
(dp905
sg71
g874
sg64
(lp906
g57
(g78
g59
NtRp907
(dp908
g62
(dp909
sg71
g903
sg64
(lp910
g57
(g58
g59
NtRp911
(dp912
g62
(dp913
g70
I3
ssg71
g907
sg64
(lp914
S'7'
asbasbasbag57
(g73
g59
NtRp915
(dp916
g62
(dp917
sg71
g874
sg64
(lp918
g57
(g78
g59
NtRp919
(dp920
g62
(dp921
sg71
g915
sg64
(lp922
g57
(g58
g59
NtRp923
(dp924
g62
(dp925
g70
I3
ssg71
g919
sg64
(lp926
S'datetime.datetime(2012, 3, 4, 22, 12, 8)'
p927
asbasbasbag57
(g73
g59
NtRp928
(dp929
g62
(dp930
sg71
g874
sg64
(lp931
g57
(g78
g59
NtRp932
(dp933
g62
(dp934
sg71
g928
sg64
(lp935
g57
(g58
g59
NtRp936
(dp937
g62
(dp938
g70
I3
ssg71
g932
sg64
(lp939
S'stable'
p940
asbasbasbasbasbasbasbag57
(g73
g59
NtRp941
(dp942
g62
(dp943
sg71
g259
sg64
(lp944
g57
(g78
g59
NtRp945
(dp946
g62
(dp947
g82
g83
ssg71
g941
sg64
(lp948
S'wsgi_errors'
p949
asbag57
(g78
g59
NtRp950
(dp951
g62
(dp952
g89
g90
ssg71
g941
sg64
(lp953
S':'
asbag57
(g78
g59
NtRp954
(dp955
g62
(dp956
sg71
g941
sg64
(lp957
g57
(g58
g59
NtRp958
(dp959
g62
(dp960
g70
I4
ssg71
g954
sg64
(lp961
S"<open file '<stderr>', mode 'w' at 0x7fed202e71e0>"
p962
asbasbasbag57
(g73
g59
NtRp963
(dp964
g62
(dp965
sg71
g259
sg64
(lp966
g57
(g78
g59
NtRp967
(dp968
g62
(dp969
g82
g83
ssg71
g963
sg64
(lp970
S'wsgi_file_wrapper'
p971
asbag57
(g78
g59
NtRp972
(dp973
g62
(dp974
g89
g90
ssg71
g963
sg64
(lp975
S':'
asbag57
(g78
g59
NtRp976
(dp977
g62
(dp978
sg71
g963
sg64
(lp979
g57
(g58
g59
NtRp980
(dp981
g62
(dp982
g70
I4
ssg71
g976
sg64
(lp983
S'<class wsgiref.util.FileWrapper at 0x7fed1c601ae0>'
p984
asbasbasbag57
(g73
g59
NtRp985
(dp986
g62
(dp987
sg71
g259
sg64
(lp988
g57
(g78
g59
NtRp989
(dp990
g62
(dp991
g82
g83
ssg71
g985
sg64
(lp992
S'wsgi_input'
p993
asbag57
(g78
g59
NtRp994
(dp995
g62
(dp996
g89
g90
ssg71
g985
sg64
(lp997
S':'
asbag57
(g78
g59
NtRp998
(dp999
g62
(dp1000
sg71
g985
sg64
(lp1001
g57
(g58
g59
NtRp1002
(dp1003
g62
(dp1004
g70
I4
ssg71
g998
sg64
(lp1005
S'<socket._fileobject object at 0x7fed1c337c50>'
p1006
asbasbasbag57
(g73
g59
NtRp1007
(dp1008
g62
(dp1009
sg71
g259
sg64
(lp1010
g57
(g78
g59
NtRp1011
(dp1012
g62
(dp1013
g82
g83
ssg71
g1007
sg64
(lp1014
S'wsgi_multiprocess'
p1015
asbag57
(g78
g59
NtRp1016
(dp1017
g62
(dp1018
g89
g90
ssg71
g1007
sg64
(lp1019
S':'
asbag57
(g78
g59
NtRp1020
(dp1021
g62
(dp1022
sg71
g1007
sg64
(lp1023
g57
(g58
g59
NtRp1024
(dp1025
g62
(dp1026
g70
I4
ssg71
g1020
sg64
(lp1027
g100
asbasbasbag57
(g73
g59
NtRp1028
(dp1029
g62
(dp1030
sg71
g259
sg64
(lp1031
g57
(g78
g59
NtRp1032
(dp1033
g62
(dp1034
g82
g83
ssg71
g1028
sg64
(lp1035
S'wsgi_multithread'
p1036
asbag57
(g78
g59
NtRp1037
(dp1038
g62
(dp1039
g89
g90
ssg71
g1028
sg64
(lp1040
S':'
asbag57
(g78
g59
NtRp1041
(dp1042
g62
(dp1043
sg71
g1028
sg64
(lp1044
g57
(g58
g59
NtRp1045
(dp1046
g62
(dp1047
g70
I4
ssg71
g1041
sg64
(lp1048
S'True'
p1049
asbasbasbag57
(g73
g59
NtRp1050
(dp1051
g62
(dp1052
sg71
g259
sg64
(lp1053
g57
(g78
g59
NtRp1054
(dp1055
g62
(dp1056
g82
g83
ssg71
g1050
sg64
(lp1057
S'wsgi_run_once'
p1058
asbag57
(g78
g59
NtRp1059
(dp1060
g62
(dp1061
g89
g90
ssg71
g1050
sg64
(lp1062
S':'
asbag57
(g78
g59
NtRp1063
(dp1064
g62
(dp1065
sg71
g1050
sg64
(lp1066
g57
(g58
g59
NtRp1067
(dp1068
g62
(dp1069
g70
I4
ssg71
g1063
sg64
(lp1070
g100
asbasbasbag57
(g73
g59
NtRp1071
(dp1072
g62
(dp1073
sg71
g259
sg64
(lp1074
g57
(g78
g59
NtRp1075
(dp1076
g62
(dp1077
g82
g83
ssg71
g1071
sg64
(lp1078
S'wsgi_url_scheme'
p1079
asbag57
(g78
g59
NtRp1080
(dp1081
g62
(dp1082
g89
g90
ssg71
g1071
sg64
(lp1083
S':'
asbag57
(g78
g59
NtRp1084
(dp1085
g62
(dp1086
sg71
g1071
sg64
(lp1087
g57
(g58
g59
NtRp1088
(dp1089
g62
(dp1090
g70
I4
ssg71
g1084
sg64
(lp1091
S'http'
p1092
asbasbasbag57
(g73
g59
NtRp1093
(dp1094
g62
(dp1095
sg71
g259
sg64
(lp1096
g57
(g78
g59
NtRp1097
(dp1098
g62
(dp1099
g82
g83
ssg71
g1093
sg64
(lp1100
S'wsgi_version'
p1101
asbag57
(g78
g59
NtRp1102
(dp1103
g62
(dp1104
g89
g90
ssg71
g1093
sg64
(lp1105
S':'
asbag57
(g78
g59
NtRp1106
(dp1107
g62
(dp1108
sg71
g1093
sg64
(lp1109
g57
(g58
g59
NtRp1110
(dp1111
g62
(dp1112
g70
I4
ssg71
g1106
sg64
(lp1113
g57
(g66
g59
NtRp1114
(dp1115
g62
(dp1116
g70
I3
ssg71
Nsg64
(lp1117
g57
(g73
g59
NtRp1118
(dp1119
g62
(dp1120
sg71
g1114
sg64
(lp1121
g57
(g78
g59
NtRp1122
(dp1123
g62
(dp1124
sg71
g1118
sg64
(lp1125
g57
(g58
g59
NtRp1126
(dp1127
g62
(dp1128
g70
I3
ssg71
g1122
sg64
(lp1129
S'1'
asbasbasbag57
(g73
g59
NtRp1130
(dp1131
g62
(dp1132
sg71
g1114
sg64
(lp1133
g57
(g78
g59
NtRp1134
(dp1135
g62
(dp1136
sg71
g1130
sg64
(lp1137
g57
(g58
g59
NtRp1138
(dp1139
g62
(dp1140
g70
I3
ssg71
g1134
sg64
(lp1141
S'0'
asbasbasbasbasbasbasbasbasbasbasbag57
(g73
g59
NtRp1142
(dp1143
g62
(dp1144
sg71
g67
sg64
(lp1145
g57
(g78
g59
NtRp1146
(dp1147
g62
(dp1148
g82
g83
ssg71
g1142
sg64
(lp1149
S'extension'
p1150
asbag57
(g78
g59
NtRp1151
(dp1152
g62
(dp1153
g89
g90
ssg71
g1142
sg64
(lp1154
S':'
asbag57
(g78
g59
NtRp1155
(dp1156
g62
(dp1157
sg71
g1142
sg64
(lp1158
g57
(g58
g59
NtRp1159
(dp1160
g62
(dp1161
g70
I5
ssg71
g1155
sg64
(lp1162
S'html'
p1163
asbasbasbag57
(g73
g59
NtRp1164
(dp1165
g62
(dp1166
sg71
g67
sg64
(lp1167
g57
(g78
g59
NtRp1168
(dp1169
g62
(dp1170
g82
g83
ssg71
g1164
sg64
(lp1171
S'folder'
p1172
asbag57
(g78
g59
NtRp1173
(dp1174
g62
(dp1175
g89
g90
ssg71
g1164
sg64
(lp1176
S':'
asbag57
(g78
g59
NtRp1177
(dp1178
g62
(dp1179
sg71
g1164
sg64
(lp1180
g57
(g58
g59
NtRp1181
(dp1182
g62
(dp1183
g70
I5
ssg71
g1177
sg64
(lp1184
S'/home/janderson/web2py/applications/welcome/'
p1185
asbasbasbag57
(g73
g59
NtRp1186
(dp1187
g62
(dp1188
sg71
g67
sg64
(lp1189
g57
(g78
g59
NtRp1190
(dp1191
g62
(dp1192
g82
g83
ssg71
g1186
sg64
(lp1193
S'function'
p1194
asbag57
(g78
g59
NtRp1195
(dp1196
g62
(dp1197
g89
g90
ssg71
g1186
sg64
(lp1198
S':'
asbag57
(g78
g59
NtRp1199
(dp1200
g62
(dp1201
sg71
g1186
sg64
(lp1202
g57
(g58
g59
NtRp1203
(dp1204
g62
(dp1205
g70
I5
ssg71
g1199
sg64
(lp1206
S'index'
p1207
asbasbasbag57
(g73
g59
NtRp1208
(dp1209
g62
(dp1210
sg71
g67
sg64
(lp1211
g57
(g78
g59
NtRp1212
(dp1213
g62
(dp1214
g82
g83
ssg71
g1208
sg64
(lp1215
S'get_vars'
p1216
asbag57
(g78
g59
NtRp1217
(dp1218
g62
(dp1219
g89
g90
ssg71
g1208
sg64
(lp1220
S':'
asbag57
(g78
g59
NtRp1221
(dp1222
g62
(dp1223
sg71
g1208
sg64
(lp1224
g57
(g58
g59
NtRp1225
(dp1226
g62
(dp1227
g70
I5
ssg71
g1221
sg64
(lp1228
g57
(g66
g59
NtRp1229
(dp1230
g62
(dp1231
g70
I4
ssg71
Nsg64
(lp1232
sbasbasbasbag57
(g73
g59
NtRp1233
(dp1234
g62
(dp1235
sg71
g67
sg64
(lp1236
g57
(g78
g59
NtRp1237
(dp1238
g62
(dp1239
g82
g83
ssg71
g1233
sg64
(lp1240
S'global_settings'
p1241
asbag57
(g78
g59
NtRp1242
(dp1243
g62
(dp1244
g89
g90
ssg71
g1233
sg64
(lp1245
S':'
asbag57
(g78
g59
NtRp1246
(dp1247
g62
(dp1248
sg71
g1233
sg64
(lp1249
g57
(g58
g59
NtRp1250
(dp1251
g62
(dp1252
g70
I5
ssg71
g1246
sg64
(lp1253
g57
(g66
g59
NtRp1254
(dp1255
g62
(dp1256
g70
I4
ssg71
Nsg64
(lp1257
g57
(g73
g59
NtRp1258
(dp1259
g62
(dp1260
sg71
g1254
sg64
(lp1261
g57
(g78
g59
NtRp1262
(dp1263
g62
(dp1264
g82
g83
ssg71
g1258
sg64
(lp1265
g271
asbag57
(g78
g59
NtRp1266
(dp1267
g62
(dp1268
g89
g90
ssg71
g1258
sg64
(lp1269
S':'
asbag57
(g78
g59
NtRp1270
(dp1271
g62
(dp1272
sg71
g1258
sg64
(lp1273
g57
(g58
g59
NtRp1274
(dp1275
g62
(dp1276
g70
I4
ssg71
g1270
sg64
(lp1277
S"set(['/home/janderson/web2py/applications/welcome/'])"
p1278
asbasbasbag57
(g73
g59
NtRp1279
(dp1280
g62
(dp1281
sg71
g1254
sg64
(lp1282
g57
(g78
g59
NtRp1283
(dp1284
g62
(dp1285
g82
g83
ssg71
g1279
sg64
(lp1286
g293
asbag57
(g78
g59
NtRp1287
(dp1288
g62
(dp1289
g89
g90
ssg71
g1279
sg64
(lp1290
S':'
asbag57
(g78
g59
NtRp1291
(dp1292
g62
(dp1293
sg71
g1279
sg64
(lp1294
g57
(g58
g59
NtRp1295
(dp1296
g62
(dp1297
g70
I4
ssg71
g1291
sg64
(lp1298
g306
asbasbasbag57
(g73
g59
NtRp1299
(dp1300
g62
(dp1301
sg71
g1254
sg64
(lp1302
g57
(g78
g59
NtRp1303
(dp1304
g62
(dp1305
g82
g83
ssg71
g1299
sg64
(lp1306
g315
asbag57
(g78
g59
NtRp1307
(dp1308
g62
(dp1309
g89
g90
ssg71
g1299
sg64
(lp1310
S':'
asbag57
(g78
g59
NtRp1311
(dp1312
g62
(dp1313
sg71
g1299
sg64
(lp1314
g57
(g58
g59
NtRp1315
(dp1316
g62
(dp1317
g70
I4
ssg71
g1311
sg64
(lp1318
g57
(g66
g59
NtRp1319
(dp1320
g62
(dp1321
g70
I3
ssg71
Nsg64
(lp1322
sbasbasbasbag57
(g73
g59
NtRp1323
(dp1324
g62
(dp1325
sg71
g1254
sg64
(lp1326
g57
(g78
g59
NtRp1327
(dp1328
g62
(dp1329
g82
g83
ssg71
g1323
sg64
(lp1330
g340
asbag57
(g78
g59
NtRp1331
(dp1332
g62
(dp1333
g89
g90
ssg71
g1323
sg64
(lp1334
S':'
asbag57
(g78
g59
NtRp1335
(dp1336
g62
(dp1337
sg71
g1323
sg64
(lp1338
g57
(g58
g59
NtRp1339
(dp1340
g62
(dp1341
g70
I4
ssg71
g1335
sg64
(lp1342
S"<Values at 0x7fed1c23cfc8: {'verbose': False, 'ip': '127.0.0.1', 'shutdown_timeout': 5, 'taskbar': False, 'nocron': False, 'pid_filename': 'httpserver.pid', 'maxthreads': None, 'softcron': False, 'server_name': 'Jandersolutions', 'bpython': False, 'nogui': False, 'port': 8000, 'extcron': False, 'debuglevel': 30, 'test': None, 'folder': '/home/janderson/web2py', 'config': '', 'import_models': False, 'winservice': '', 'shell': None, 'run': '', 'log_filename': 'httpserver.log', 'args': [''], 'socket_timeout': 5, 'ssl_ca_certificate': None, 'scheduler': None, 'profiler_filename': None, 'ssl_private_key': '', 'password': '<ask>', 'request_queue_size': 5, 'ssl_certificate': '', 'cronjob': False, 'numthreads': None, 'quiet': False, 'interfaces': None, 'minthreads': None, 'timeout': 10, 'plain': False, 'nobanner': False}>"
p1343
asbasbasbag57
(g73
g59
NtRp1344
(dp1345
g62
(dp1346
sg71
g1254
sg64
(lp1347
g57
(g78
g59
NtRp1348
(dp1349
g62
(dp1350
g82
g83
ssg71
g1344
sg64
(lp1351
g362
asbag57
(g78
g59
NtRp1352
(dp1353
g62
(dp1354
g89
g90
ssg71
g1344
sg64
(lp1355
S':'
asbag57
(g78
g59
NtRp1356
(dp1357
g62
(dp1358
sg71
g1344
sg64
(lp1359
g57
(g58
g59
NtRp1360
(dp1361
g62
(dp1362
g70
I4
ssg71
g1356
sg64
(lp1363
S'set([])'
p1364
asbasbasbag57
(g73
g59
NtRp1365
(dp1366
g62
(dp1367
sg71
g1254
sg64
(lp1368
g57
(g78
g59
NtRp1369
(dp1370
g62
(dp1371
g82
g83
ssg71
g1365
sg64
(lp1372
g384
asbag57
(g78
g59
NtRp1373
(dp1374
g62
(dp1375
g89
g90
ssg71
g1365
sg64
(lp1376
S':'
asbag57
(g78
g59
NtRp1377
(dp1378
g62
(dp1379
sg71
g1365
sg64
(lp1380
g57
(g58
g59
NtRp1381
(dp1382
g62
(dp1383
g70
I4
ssg71
g1377
sg64
(lp1384
g100
asbasbasbag57
(g73
g59
NtRp1385
(dp1386
g62
(dp1387
sg71
g1254
sg64
(lp1388
g57
(g78
g59
NtRp1389
(dp1390
g62
(dp1391
g82
g83
ssg71
g1385
sg64
(lp1392
g405
asbag57
(g78
g59
NtRp1393
(dp1394
g62
(dp1395
g89
g90
ssg71
g1385
sg64
(lp1396
S':'
asbag57
(g78
g59
NtRp1397
(dp1398
g62
(dp1399
sg71
g1385
sg64
(lp1400
g57
(g58
g59
NtRp1401
(dp1402
g62
(dp1403
g70
I4
ssg71
g1397
sg64
(lp1404
g418
asbasbasbag57
(g73
g59
NtRp1405
(dp1406
g62
(dp1407
sg71
g1254
sg64
(lp1408
g57
(g78
g59
NtRp1409
(dp1410
g62
(dp1411
g82
g83
ssg71
g1405
sg64
(lp1412
g559
asbag57
(g78
g59
NtRp1413
(dp1414
g62
(dp1415
g89
g90
ssg71
g1405
sg64
(lp1416
S':'
asbag57
(g78
g59
NtRp1417
(dp1418
g62
(dp1419
sg71
g1405
sg64
(lp1420
g57
(g58
g59
NtRp1421
(dp1422
g62
(dp1423
g70
I4
ssg71
g1417
sg64
(lp1424
g100
asbasbasbag57
(g73
g59
NtRp1425
(dp1426
g62
(dp1427
sg71
g1254
sg64
(lp1428
g57
(g78
g59
NtRp1429
(dp1430
g62
(dp1431
g82
g83
ssg71
g1425
sg64
(lp1432
g580
asbag57
(g78
g59
NtRp1433
(dp1434
g62
(dp1435
g89
g90
ssg71
g1425
sg64
(lp1436
S':'
asbag57
(g78
g59
NtRp1437
(dp1438
g62
(dp1439
sg71
g1425
sg64
(lp1440
g57
(g58
g59
NtRp1441
(dp1442
g62
(dp1443
g70
I4
ssg71
g1437
sg64
(lp1444
g100
asbasbasbag57
(g73
g59
NtRp1445
(dp1446
g62
(dp1447
sg71
g1254
sg64
(lp1448
g57
(g78
g59
NtRp1449
(dp1450
g62
(dp1451
g82
g83
ssg71
g1445
sg64
(lp1452
g818
asbag57
(g78
g59
NtRp1453
(dp1454
g62
(dp1455
g89
g90
ssg71
g1445
sg64
(lp1456
S':'
asbag57
(g78
g59
NtRp1457
(dp1458
g62
(dp1459
sg71
g1445
sg64
(lp1460
g57
(g58
g59
NtRp1461
(dp1462
g62
(dp1463
g70
I4
ssg71
g1457
sg64
(lp1464
g831
asbasbasbag57
(g73
g59
NtRp1465
(dp1466
g62
(dp1467
sg71
g1254
sg64
(lp1468
g57
(g78
g59
NtRp1469
(dp1470
g62
(dp1471
g82
g83
ssg71
g1465
sg64
(lp1472
g861
asbag57
(g78
g59
NtRp1473
(dp1474
g62
(dp1475
g89
g90
ssg71
g1465
sg64
(lp1476
S':'
asbag57
(g78
g59
NtRp1477
(dp1478
g62
(dp1479
sg71
g1465
sg64
(lp1480
g57
(g58
g59
NtRp1481
(dp1482
g62
(dp1483
g70
I4
ssg71
g1477
sg64
(lp1484
g57
(g66
g59
NtRp1485
(dp1486
g62
(dp1487
g70
I3
ssg71
Nsg64
(lp1488
g57
(g73
g59
NtRp1489
(dp1490
g62
(dp1491
sg71
g1485
sg64
(lp1492
g57
(g78
g59
NtRp1493
(dp1494
g62
(dp1495
sg71
g1489
sg64
(lp1496
g57
(g58
g59
NtRp1497
(dp1498
g62
(dp1499
g70
I3
ssg71
g1493
sg64
(lp1500
S'1'
asbasbasbag57
(g73
g59
NtRp1501
(dp1502
g62
(dp1503
sg71
g1485
sg64
(lp1504
g57
(g78
g59
NtRp1505
(dp1506
g62
(dp1507
sg71
g1501
sg64
(lp1508
g57
(g58
g59
NtRp1509
(dp1510
g62
(dp1511
g70
I3
ssg71
g1505
sg64
(lp1512
S'99'
p1513
asbasbasbag57
(g73
g59
NtRp1514
(dp1515
g62
(dp1516
sg71
g1485
sg64
(lp1517
g57
(g78
g59
NtRp1518
(dp1519
g62
(dp1520
sg71
g1514
sg64
(lp1521
g57
(g58
g59
NtRp1522
(dp1523
g62
(dp1524
g70
I3
ssg71
g1518
sg64
(lp1525
S'7'
asbasbasbag57
(g73
g59
NtRp1526
(dp1527
g62
(dp1528
sg71
g1485
sg64
(lp1529
g57
(g78
g59
NtRp1530
(dp1531
g62
(dp1532
sg71
g1526
sg64
(lp1533
g57
(g58
g59
NtRp1534
(dp1535
g62
(dp1536
g70
I3
ssg71
g1530
sg64
(lp1537
S'datetime.datetime(2012, 3, 4, 22, 12, 8)'
p1538
asbasbasbag57
(g73
g59
NtRp1539
(dp1540
g62
(dp1541
sg71
g1485
sg64
(lp1542
g57
(g78
g59
NtRp1543
(dp1544
g62
(dp1545
sg71
g1539
sg64
(lp1546
g57
(g58
g59
NtRp1547
(dp1548
g62
(dp1549
g70
I3
ssg71
g1543
sg64
(lp1550
g940
asbasbasbasbasbasbasbasbasbasbasbag57
(g73
g59
NtRp1551
(dp1552
g62
(dp1553
sg71
g67
sg64
(lp1554
g57
(g78
g59
NtRp1555
(dp1556
g62
(dp1557
g82
g83
ssg71
g1551
sg64
(lp1558
S'is_https'
p1559
asbag57
(g78
g59
NtRp1560
(dp1561
g62
(dp1562
g89
g90
ssg71
g1551
sg64
(lp1563
S':'
asbag57
(g78
g59
NtRp1564
(dp1565
g62
(dp1566
sg71
g1551
sg64
(lp1567
g57
(g58
g59
NtRp1568
(dp1569
g62
(dp1570
g70
I5
ssg71
g1564
sg64
(lp1571
g100
asbasbasbag57
(g73
g59
NtRp1572
(dp1573
g62
(dp1574
sg71
g67
sg64
(lp1575
g57
(g78
g59
NtRp1576
(dp1577
g62
(dp1578
g82
g83
ssg71
g1572
sg64
(lp1579
S'is_local'
p1580
asbag57
(g78
g59
NtRp1581
(dp1582
g62
(dp1583
g89
g90
ssg71
g1572
sg64
(lp1584
S':'
asbag57
(g78
g59
NtRp1585
(dp1586
g62
(dp1587
sg71
g1572
sg64
(lp1588
g57
(g58
g59
NtRp1589
(dp1590
g62
(dp1591
g70
I5
ssg71
g1585
sg64
(lp1592
g1049
asbasbasbag57
(g73
g59
NtRp1593
(dp1594
g62
(dp1595
sg71
g67
sg64
(lp1596
g57
(g78
g59
NtRp1597
(dp1598
g62
(dp1599
g82
g83
ssg71
g1593
sg64
(lp1600
S'is_restful'
p1601
asbag57
(g78
g59
NtRp1602
(dp1603
g62
(dp1604
g89
g90
ssg71
g1593
sg64
(lp1605
S':'
asbag57
(g78
g59
NtRp1606
(dp1607
g62
(dp1608
sg71
g1593
sg64
(lp1609
g57
(g58
g59
NtRp1610
(dp1611
g62
(dp1612
g70
I5
ssg71
g1606
sg64
(lp1613
g100
asbasbasbag57
(g73
g59
NtRp1614
(dp1615
g62
(dp1616
sg71
g67
sg64
(lp1617
g57
(g78
g59
NtRp1618
(dp1619
g62
(dp1620
g82
g83
ssg71
g1614
sg64
(lp1621
S'now'
p1622
asbag57
(g78
g59
NtRp1623
(dp1624
g62
(dp1625
g89
g90
ssg71
g1614
sg64
(lp1626
S':'
asbag57
(g78
g59
NtRp1627
(dp1628
g62
(dp1629
sg71
g1614
sg64
(lp1630
g57
(g58
g59
NtRp1631
(dp1632
g62
(dp1633
g70
I5
ssg71
g1627
sg64
(lp1634
S'datetime.datetime(2015, 10, 25, 10, 30, 30, 839309)'
p1635
asbasbasbag57
(g73
g59
NtRp1636
(dp1637
g62
(dp1638
sg71
g67
sg64
(lp1639
g57
(g78
g59
NtRp1640
(dp1641
g62
(dp1642
g82
g83
ssg71
g1636
sg64
(lp1643
S'post_vars'
p1644
asbag57
(g78
g59
NtRp1645
(dp1646
g62
(dp1647
g89
g90
ssg71
g1636
sg64
(lp1648
S':'
asbag57
(g78
g59
NtRp1649
(dp1650
g62
(dp1651
sg71
g1636
sg64
(lp1652
g57
(g58
g59
NtRp1653
(dp1654
g62
(dp1655
g70
I5
ssg71
g1649
sg64
(lp1656
g57
(g66
g59
NtRp1657
(dp1658
g62
(dp1659
g70
I4
ssg71
Nsg64
(lp1660
sbasbasbasbag57
(g73
g59
NtRp1661
(dp1662
g62
(dp1663
sg71
g67
sg64
(lp1664
g57
(g78
g59
NtRp1665
(dp1666
g62
(dp1667
g82
g83
ssg71
g1661
sg64
(lp1668
S'url'
p1669
asbag57
(g78
g59
NtRp1670
(dp1671
g62
(dp1672
g89
g90
ssg71
g1661
sg64
(lp1673
S':'
asbag57
(g78
g59
NtRp1674
(dp1675
g62
(dp1676
sg71
g1661
sg64
(lp1677
g57
(g58
g59
NtRp1678
(dp1679
g62
(dp1680
g70
I5
ssg71
g1674
sg64
(lp1681
S'/welcome/default/index'
p1682
asbasbasbag57
(g73
g59
NtRp1683
(dp1684
g62
(dp1685
sg71
g67
sg64
(lp1686
g57
(g78
g59
NtRp1687
(dp1688
g62
(dp1689
g82
g83
ssg71
g1683
sg64
(lp1690
S'utcnow'
p1691
asbag57
(g78
g59
NtRp1692
(dp1693
g62
(dp1694
g89
g90
ssg71
g1683
sg64
(lp1695
S':'
asbag57
(g78
g59
NtRp1696
(dp1697
g62
(dp1698
sg71
g1683
sg64
(lp1699
g57
(g58
g59
NtRp1700
(dp1701
g62
(dp1702
g70
I5
ssg71
g1696
sg64
(lp1703
S'datetime.datetime(2015, 10, 25, 12, 30, 30, 839328)'
p1704
asbasbasbag57
(g73
g59
NtRp1705
(dp1706
g62
(dp1707
sg71
g67
sg64
(lp1708
g57
(g78
g59
NtRp1709
(dp1710
g62
(dp1711
g82
g83
ssg71
g1705
sg64
(lp1712
S'uuid'
p1713
asbag57
(g78
g59
NtRp1714
(dp1715
g62
(dp1716
g89
g90
ssg71
g1705
sg64
(lp1717
S':'
asbag57
(g78
g59
NtRp1718
(dp1719
g62
(dp1720
sg71
g1705
sg64
(lp1721
g57
(g58
g59
NtRp1722
(dp1723
g62
(dp1724
g70
I5
ssg71
g1718
sg64
(lp1725
S'welcome/127.0.0.1.2015-10-25.10-30-30.4851c894-9b41-47eb-b6ae-7e3bc88316f8'
p1726
asbasbasbag57
(g73
g59
NtRp1727
(dp1728
g62
(dp1729
sg71
g67
sg64
(lp1730
g57
(g78
g59
NtRp1731
(dp1732
g62
(dp1733
g82
g83
ssg71
g1727
sg64
(lp1734
S'vars'
p1735
asbag57
(g78
g59
NtRp1736
(dp1737
g62
(dp1738
g89
g90
ssg71
g1727
sg64
(lp1739
S':'
asbag57
(g78
g59
NtRp1740
(dp1741
g62
(dp1742
sg71
g1727
sg64
(lp1743
g57
(g58
g59
NtRp1744
(dp1745
g62
(dp1746
g70
I5
ssg71
g1740
sg64
(lp1747
g57
(g66
g59
NtRp1748
(dp1749
g62
(dp1750
g70
I4
ssg71
Nsg64
(lp1751
sbasbasbasbag57
(g73
g59
NtRp1752
(dp1753
g62
(dp1754
sg71
g67
sg64
(lp1755
g57
(g78
g59
NtRp1756
(dp1757
g62
(dp1758
g82
g83
ssg71
g1752
sg64
(lp1759
S'wsgi'
p1760
asbag57
(g78
g59
NtRp1761
(dp1762
g62
(dp1763
g89
g90
ssg71
g1752
sg64
(lp1764
S':'
asbag57
(g78
g59
NtRp1765
(dp1766
g62
(dp1767
sg71
g1752
sg64
(lp1768
g57
(g58
g59
NtRp1769
(dp1770
g62
(dp1771
g70
I5
ssg71
g1765
sg64
(lp1772
g57
(g66
g59
NtRp1773
(dp1774
g62
(dp1775
g70
I4
ssg71
Nsg64
(lp1776
g57
(g73
g59
NtRp1777
(dp1778
g62
(dp1779
sg71
g1773
sg64
(lp1780
g57
(g78
g59
NtRp1781
(dp1782
g62
(dp1783
g82
g83
ssg71
g1777
sg64
(lp1784
S'environ'
p1785
asbag57
(g78
g59
NtRp1786
(dp1787
g62
(dp1788
g89
g90
ssg71
g1777
sg64
(lp1789
S':'
asbag57
(g78
g59
NtRp1790
(dp1791
g62
(dp1792
sg71
g1777
sg64
(lp1793
g57
(g58
g59
NtRp1794
(dp1795
g62
(dp1796
g70
I4
ssg71
g1790
sg64
(lp1797
g57
(g66
g59
NtRp1798
(dp1799
g62
(dp1800
g70
I3
ssg71
Nsg64
(lp1801
g57
(g73
g59
NtRp1802
(dp1803
g62
(dp1804
sg71
g1798
sg64
(lp1805
g57
(g78
g59
NtRp1806
(dp1807
g62
(dp1808
g82
g83
ssg71
g1802
sg64
(lp1809
S'HTTP_ACCEPT'
p1810
asbag57
(g78
g59
NtRp1811
(dp1812
g62
(dp1813
g89
g90
ssg71
g1802
sg64
(lp1814
S':'
asbag57
(g78
g59
NtRp1815
(dp1816
g62
(dp1817
sg71
g1802
sg64
(lp1818
g57
(g58
g59
NtRp1819
(dp1820
g62
(dp1821
g70
I3
ssg71
g1815
sg64
(lp1822
g440
asbasbasbag57
(g73
g59
NtRp1823
(dp1824
g62
(dp1825
sg71
g1798
sg64
(lp1826
g57
(g78
g59
NtRp1827
(dp1828
g62
(dp1829
g82
g83
ssg71
g1823
sg64
(lp1830
S'HTTP_ACCEPT_ENCODING'
p1831
asbag57
(g78
g59
NtRp1832
(dp1833
g62
(dp1834
g89
g90
ssg71
g1823
sg64
(lp1835
S':'
asbag57
(g78
g59
NtRp1836
(dp1837
g62
(dp1838
sg71
g1823
sg64
(lp1839
g57
(g58
g59
NtRp1840
(dp1841
g62
(dp1842
g70
I3
ssg71
g1836
sg64
(lp1843
g462
asbasbasbag57
(g73
g59
NtRp1844
(dp1845
g62
(dp1846
sg71
g1798
sg64
(lp1847
g57
(g78
g59
NtRp1848
(dp1849
g62
(dp1850
g82
g83
ssg71
g1844
sg64
(lp1851
S'HTTP_ACCEPT_LANGUAGE'
p1852
asbag57
(g78
g59
NtRp1853
(dp1854
g62
(dp1855
g89
g90
ssg71
g1844
sg64
(lp1856
S':'
asbag57
(g78
g59
NtRp1857
(dp1858
g62
(dp1859
sg71
g1844
sg64
(lp1860
g57
(g58
g59
NtRp1861
(dp1862
g62
(dp1863
g70
I3
ssg71
g1857
sg64
(lp1864
g484
asbasbasbag57
(g73
g59
NtRp1865
(dp1866
g62
(dp1867
sg71
g1798
sg64
(lp1868
g57
(g78
g59
NtRp1869
(dp1870
g62
(dp1871
g82
g83
ssg71
g1865
sg64
(lp1872
S'HTTP_CONNECTION'
p1873
asbag57
(g78
g59
NtRp1874
(dp1875
g62
(dp1876
g89
g90
ssg71
g1865
sg64
(lp1877
S':'
asbag57
(g78
g59
NtRp1878
(dp1879
g62
(dp1880
sg71
g1865
sg64
(lp1881
g57
(g58
g59
NtRp1882
(dp1883
g62
(dp1884
g70
I3
ssg71
g1878
sg64
(lp1885
g506
asbasbasbag57
(g73
g59
NtRp1886
(dp1887
g62
(dp1888
sg71
g1798
sg64
(lp1889
g57
(g78
g59
NtRp1890
(dp1891
g62
(dp1892
g82
g83
ssg71
g1886
sg64
(lp1893
S'HTTP_HOST'
p1894
asbag57
(g78
g59
NtRp1895
(dp1896
g62
(dp1897
g89
g90
ssg71
g1886
sg64
(lp1898
S':'
asbag57
(g78
g59
NtRp1899
(dp1900
g62
(dp1901
sg71
g1886
sg64
(lp1902
g57
(g58
g59
NtRp1903
(dp1904
g62
(dp1905
g70
I3
ssg71
g1899
sg64
(lp1906
g528
asbasbasbag57
(g73
g59
NtRp1907
(dp1908
g62
(dp1909
sg71
g1798
sg64
(lp1910
g57
(g78
g59
NtRp1911
(dp1912
g62
(dp1913
g82
g83
ssg71
g1907
sg64
(lp1914
S'HTTP_USER_AGENT'
p1915
asbag57
(g78
g59
NtRp1916
(dp1917
g62
(dp1918
g89
g90
ssg71
g1907
sg64
(lp1919
S':'
asbag57
(g78
g59
NtRp1920
(dp1921
g62
(dp1922
sg71
g1907
sg64
(lp1923
g57
(g58
g59
NtRp1924
(dp1925
g62
(dp1926
g70
I3
ssg71
g1920
sg64
(lp1927
g550
asbasbasbag57
(g73
g59
NtRp1928
(dp1929
g62
(dp1930
sg71
g1798
sg64
(lp1931
g57
(g78
g59
NtRp1932
(dp1933
g62
(dp1934
g82
g83
ssg71
g1928
sg64
(lp1935
S'PATH_INFO'
p1936
asbag57
(g78
g59
NtRp1937
(dp1938
g62
(dp1939
g89
g90
ssg71
g1928
sg64
(lp1940
S':'
asbag57
(g78
g59
NtRp1941
(dp1942
g62
(dp1943
sg71
g1928
sg64
(lp1944
g57
(g58
g59
NtRp1945
(dp1946
g62
(dp1947
g70
I3
ssg71
g1941
sg64
(lp1948
g614
asbasbasbag57
(g73
g59
NtRp1949
(dp1950
g62
(dp1951
sg71
g1798
sg64
(lp1952
g57
(g78
g59
NtRp1953
(dp1954
g62
(dp1955
g82
g83
ssg71
g1949
sg64
(lp1956
S'QUERY_STRING'
p1957
asbag57
(g78
g59
NtRp1958
(dp1959
g62
(dp1960
g89
g90
ssg71
g1949
sg64
(lp1961
S':'
asbag57
(g78
g59
NtRp1962
(dp1963
g62
(dp1964
sg71
g1949
sg64
(lp1965
g57
(g58
g59
NtRp1966
(dp1967
g62
(dp1968
g70
I3
ssg71
g1962
sg64
(lp1969
S''
asbasbasbag57
(g73
g59
NtRp1970
(dp1971
g62
(dp1972
sg71
g1798
sg64
(lp1973
g57
(g78
g59
NtRp1974
(dp1975
g62
(dp1976
g82
g83
ssg71
g1970
sg64
(lp1977
S'REMOTE_ADDR'
p1978
asbag57
(g78
g59
NtRp1979
(dp1980
g62
(dp1981
g89
g90
ssg71
g1970
sg64
(lp1982
S':'
asbag57
(g78
g59
NtRp1983
(dp1984
g62
(dp1985
sg71
g1970
sg64
(lp1986
g57
(g58
g59
NtRp1987
(dp1988
g62
(dp1989
g70
I3
ssg71
g1983
sg64
(lp1990
g190
asbasbasbag57
(g73
g59
NtRp1991
(dp1992
g62
(dp1993
sg71
g1798
sg64
(lp1994
g57
(g78
g59
NtRp1995
(dp1996
g62
(dp1997
g82
g83
ssg71
g1991
sg64
(lp1998
S'REMOTE_PORT'
p1999
asbag57
(g78
g59
NtRp2000
(dp2001
g62
(dp2002
g89
g90
ssg71
g1991
sg64
(lp2003
S':'
asbag57
(g78
g59
NtRp2004
(dp2005
g62
(dp2006
sg71
g1991
sg64
(lp2007
g57
(g58
g59
NtRp2008
(dp2009
g62
(dp2010
g70
I3
ssg71
g2004
sg64
(lp2011
g678
asbasbasbag57
(g73
g59
NtRp2012
(dp2013
g62
(dp2014
sg71
g1798
sg64
(lp2015
g57
(g78
g59
NtRp2016
(dp2017
g62
(dp2018
g82
g83
ssg71
g2012
sg64
(lp2019
S'REQUEST_METHOD'
p2020
asbag57
(g78
g59
NtRp2021
(dp2022
g62
(dp2023
g89
g90
ssg71
g2012
sg64
(lp2024
S':'
asbag57
(g78
g59
NtRp2025
(dp2026
g62
(dp2027
sg71
g2012
sg64
(lp2028
g57
(g58
g59
NtRp2029
(dp2030
g62
(dp2031
g70
I3
ssg71
g2025
sg64
(lp2032
g700
asbasbasbag57
(g73
g59
NtRp2033
(dp2034
g62
(dp2035
sg71
g1798
sg64
(lp2036
g57
(g78
g59
NtRp2037
(dp2038
g62
(dp2039
g82
g83
ssg71
g2033
sg64
(lp2040
S'SCRIPT_NAME'
p2041
asbag57
(g78
g59
NtRp2042
(dp2043
g62
(dp2044
g89
g90
ssg71
g2033
sg64
(lp2045
S':'
asbag57
(g78
g59
NtRp2046
(dp2047
g62
(dp2048
sg71
g2033
sg64
(lp2049
g57
(g58
g59
NtRp2050
(dp2051
g62
(dp2052
g70
I3
ssg71
g2046
sg64
(lp2053
S''
asbasbasbag57
(g73
g59
NtRp2054
(dp2055
g62
(dp2056
sg71
g1798
sg64
(lp2057
g57
(g78
g59
NtRp2058
(dp2059
g62
(dp2060
g82
g83
ssg71
g2054
sg64
(lp2061
S'SERVER_NAME'
p2062
asbag57
(g78
g59
NtRp2063
(dp2064
g62
(dp2065
g89
g90
ssg71
g2054
sg64
(lp2066
S':'
asbag57
(g78
g59
NtRp2067
(dp2068
g62
(dp2069
sg71
g2054
sg64
(lp2070
g57
(g58
g59
NtRp2071
(dp2072
g62
(dp2073
g70
I3
ssg71
g2067
sg64
(lp2074
g743
asbasbasbag57
(g73
g59
NtRp2075
(dp2076
g62
(dp2077
sg71
g1798
sg64
(lp2078
g57
(g78
g59
NtRp2079
(dp2080
g62
(dp2081
g82
g83
ssg71
g2075
sg64
(lp2082
S'SERVER_PORT'
p2083
asbag57
(g78
g59
NtRp2084
(dp2085
g62
(dp2086
g89
g90
ssg71
g2075
sg64
(lp2087
S':'
asbag57
(g78
g59
NtRp2088
(dp2089
g62
(dp2090
sg71
g2075
sg64
(lp2091
g57
(g58
g59
NtRp2092
(dp2093
g62
(dp2094
g70
I3
ssg71
g2088
sg64
(lp2095
g765
asbasbasbag57
(g73
g59
NtRp2096
(dp2097
g62
(dp2098
sg71
g1798
sg64
(lp2099
g57
(g78
g59
NtRp2100
(dp2101
g62
(dp2102
g82
g83
ssg71
g2096
sg64
(lp2103
S'SERVER_PROTOCOL'
p2104
asbag57
(g78
g59
NtRp2105
(dp2106
g62
(dp2107
g89
g90
ssg71
g2096
sg64
(lp2108
S':'
asbag57
(g78
g59
NtRp2109
(dp2110
g62
(dp2111
sg71
g2096
sg64
(lp2112
g57
(g58
g59
NtRp2113
(dp2114
g62
(dp2115
g70
I3
ssg71
g2109
sg64
(lp2116
g787
asbasbasbag57
(g73
g59
NtRp2117
(dp2118
g62
(dp2119
sg71
g1798
sg64
(lp2120
g57
(g78
g59
NtRp2121
(dp2122
g62
(dp2123
g82
g83
ssg71
g2117
sg64
(lp2124
S'SERVER_SOFTWARE'
p2125
asbag57
(g78
g59
NtRp2126
(dp2127
g62
(dp2128
g89
g90
ssg71
g2117
sg64
(lp2129
S':'
asbag57
(g78
g59
NtRp2130
(dp2131
g62
(dp2132
sg71
g2117
sg64
(lp2133
g57
(g58
g59
NtRp2134
(dp2135
g62
(dp2136
g70
I3
ssg71
g2130
sg64
(lp2137
g809
asbasbasbag57
(g73
g59
NtRp2138
(dp2139
g62
(dp2140
sg71
g1798
sg64
(lp2141
g57
(g78
g59
NtRp2142
(dp2143
g62
(dp2144
g82
g83
ssg71
g2138
sg64
(lp2145
S'wsgi.errors'
p2146
asbag57
(g78
g59
NtRp2147
(dp2148
g62
(dp2149
g89
g90
ssg71
g2138
sg64
(lp2150
S':'
asbag57
(g78
g59
NtRp2151
(dp2152
g62
(dp2153
sg71
g2138
sg64
(lp2154
g57
(g58
g59
NtRp2155
(dp2156
g62
(dp2157
g70
I3
ssg71
g2151
sg64
(lp2158
S"<open file '<stderr>', mode 'w' at 0x7fed202e71e0>"
p2159
asbasbasbag57
(g73
g59
NtRp2160
(dp2161
g62
(dp2162
sg71
g1798
sg64
(lp2163
g57
(g78
g59
NtRp2164
(dp2165
g62
(dp2166
g82
g83
ssg71
g2160
sg64
(lp2167
S'wsgi.file_wrapper'
p2168
asbag57
(g78
g59
NtRp2169
(dp2170
g62
(dp2171
g89
g90
ssg71
g2160
sg64
(lp2172
S':'
asbag57
(g78
g59
NtRp2173
(dp2174
g62
(dp2175
sg71
g2160
sg64
(lp2176
g57
(g58
g59
NtRp2177
(dp2178
g62
(dp2179
g70
I3
ssg71
g2173
sg64
(lp2180
S'<class wsgiref.util.FileWrapper at 0x7fed1c601ae0>'
p2181
asbasbasbag57
(g73
g59
NtRp2182
(dp2183
g62
(dp2184
sg71
g1798
sg64
(lp2185
g57
(g78
g59
NtRp2186
(dp2187
g62
(dp2188
g82
g83
ssg71
g2182
sg64
(lp2189
S'wsgi.input'
p2190
asbag57
(g78
g59
NtRp2191
(dp2192
g62
(dp2193
g89
g90
ssg71
g2182
sg64
(lp2194
S':'
asbag57
(g78
g59
NtRp2195
(dp2196
g62
(dp2197
sg71
g2182
sg64
(lp2198
g57
(g58
g59
NtRp2199
(dp2200
g62
(dp2201
g70
I3
ssg71
g2195
sg64
(lp2202
S'<cStringIO.StringO object at 0x7fed1b94f570>'
p2203
asbasbasbag57
(g73
g59
NtRp2204
(dp2205
g62
(dp2206
sg71
g1798
sg64
(lp2207
g57
(g78
g59
NtRp2208
(dp2209
g62
(dp2210
g82
g83
ssg71
g2204
sg64
(lp2211
S'wsgi.multiprocess'
p2212
asbag57
(g78
g59
NtRp2213
(dp2214
g62
(dp2215
g89
g90
ssg71
g2204
sg64
(lp2216
S':'
asbag57
(g78
g59
NtRp2217
(dp2218
g62
(dp2219
sg71
g2204
sg64
(lp2220
g57
(g58
g59
NtRp2221
(dp2222
g62
(dp2223
g70
I3
ssg71
g2217
sg64
(lp2224
g100
asbasbasbag57
(g73
g59
NtRp2225
(dp2226
g62
(dp2227
sg71
g1798
sg64
(lp2228
g57
(g78
g59
NtRp2229
(dp2230
g62
(dp2231
g82
g83
ssg71
g2225
sg64
(lp2232
S'wsgi.multithread'
p2233
asbag57
(g78
g59
NtRp2234
(dp2235
g62
(dp2236
g89
g90
ssg71
g2225
sg64
(lp2237
S':'
asbag57
(g78
g59
NtRp2238
(dp2239
g62
(dp2240
sg71
g2225
sg64
(lp2241
g57
(g58
g59
NtRp2242
(dp2243
g62
(dp2244
g70
I3
ssg71
g2238
sg64
(lp2245
g1049
asbasbasbag57
(g73
g59
NtRp2246
(dp2247
g62
(dp2248
sg71
g1798
sg64
(lp2249
g57
(g78
g59
NtRp2250
(dp2251
g62
(dp2252
g82
g83
ssg71
g2246
sg64
(lp2253
S'wsgi.run_once'
p2254
asbag57
(g78
g59
NtRp2255
(dp2256
g62
(dp2257
g89
g90
ssg71
g2246
sg64
(lp2258
S':'
asbag57
(g78
g59
NtRp2259
(dp2260
g62
(dp2261
sg71
g2246
sg64
(lp2262
g57
(g58
g59
NtRp2263
(dp2264
g62
(dp2265
g70
I3
ssg71
g2259
sg64
(lp2266
g100
asbasbasbag57
(g73
g59
NtRp2267
(dp2268
g62
(dp2269
sg71
g1798
sg64
(lp2270
g57
(g78
g59
NtRp2271
(dp2272
g62
(dp2273
g82
g83
ssg71
g2267
sg64
(lp2274
S'wsgi.url_scheme'
p2275
asbag57
(g78
g59
NtRp2276
(dp2277
g62
(dp2278
g89
g90
ssg71
g2267
sg64
(lp2279
S':'
asbag57
(g78
g59
NtRp2280
(dp2281
g62
(dp2282
sg71
g2267
sg64
(lp2283
g57
(g58
g59
NtRp2284
(dp2285
g62
(dp2286
g70
I3
ssg71
g2280
sg64
(lp2287
g1092
asbasbasbag57
(g73
g59
NtRp2288
(dp2289
g62
(dp2290
sg71
g1798
sg64
(lp2291
g57
(g78
g59
NtRp2292
(dp2293
g62
(dp2294
g82
g83
ssg71
g2288
sg64
(lp2295
S'wsgi.version'
p2296
asbag57
(g78
g59
NtRp2297
(dp2298
g62
(dp2299
g89
g90
ssg71
g2288
sg64
(lp2300
S':'
asbag57
(g78
g59
NtRp2301
(dp2302
g62
(dp2303
sg71
g2288
sg64
(lp2304
g57
(g58
g59
NtRp2305
(dp2306
g62
(dp2307
g70
I3
ssg71
g2301
sg64
(lp2308
S'1'
asbasbasbasbasbasbasbasbasbasbasbasbasbsS'frames'
p2309
(lp2310
(dp2311
S'file'
p2312
S'/usr/lib/pymodules/python2.7/gluon/restricted.py'
p2313
sS'dump'
p2314
(dp2315
S'environment'
p2316
S"{'A': <class 'gluon.html.A'>, 'B': <class 'gluon.html.B'>, 'BEAUTIFY': <class 'gluon.html.BEAUTIFY'>, 'BODY': <class 'gluon.html.BODY'>, 'BR': <class 'gluon.html.BR'>, 'BUTTON': <class 'gluon.html.BUTTON'>, 'CAT': <class 'gluon.html.CAT'>, 'CENTER': <class 'gluon.html.CENTER'>, 'CLEANUP': <class 'gluon.validators.CLEANUP'>, 'CODE': <class 'gluon.html.CODE'>, ...}"
p2317
sS'ccode'
p2318
S'<code object <module> at 0x7fed1c70eab0, file "/...b2py/applications/welcome/models/db.py", line 13>'
p2319
ssS'lnum'
p2320
I205
sS'lines'
p2321
(dp2322
I200
S'    try:'
p2323
sI201
S'        if type(code) == types.CodeType:'
p2324
sI202
S'            ccode = code'
p2325
sI203
S'        else:'
p2326
sI204
S'            ccode = compile2(code,layer)'
p2327
sI205
S'        exec ccode in environment'
p2328
sI206
S'    except HTTP:'
p2329
sI207
S'        raise'
p2330
sI208
S'    except RestrictedError:'
p2331
sI209
S'        # do not encapsulate (obfuscate) the original RestrictedError'
p2332
ssS'call'
p2333
S"(code='# -*- coding: utf-8 -*-\\n\\n#######################...ble auditing\\n# auth.enable_record_versioning(db)\\n', environment={'A': <class 'gluon.html.A'>, 'B': <class 'gluon.html.B'>, 'BEAUTIFY': <class 'gluon.html.BEAUTIFY'>, 'BODY': <class 'gluon.html.BODY'>, 'BR': <class 'gluon.html.BR'>, 'BUTTON': <class 'gluon.html.BUTTON'>, 'CAT': <class 'gluon.html.CAT'>, 'CENTER': <class 'gluon.html.CENTER'>, 'CLEANUP': <class 'gluon.validators.CLEANUP'>, 'CODE': <class 'gluon.html.CODE'>, ...}, layer='/home/janderson/web2py/applications/welcome/models/db.py')"
p2334
sS'func'
p2335
S'restricted'
p2336
sa(dp2337
g2312
S'/home/janderson/web2py/applications/welcome/models/db.py'
p2338
sg2314
(dp2339
S'AppConfig'
p2340
S'undefined'
p2341
sS'gluon'
p2342
g2341
ssg2320
I13
sg2321
(dp2343
I8
S'## if SSL/HTTPS is properly configured and you want all HTTP requests to'
p2344
sI9
S'## be redirected to HTTPS, uncomment the line below:'
p2345
sI10
S'# request.requires_https()'
p2346
sI11
S''
sI12
S'## app configuration made easy. Look inside private/appconfig.ini'
p2347
sI13
S'from gluon.contrib.appconfig import AppConfig'
p2348
sI14
S'## once in production, remove reload=True to gain full speed'
p2349
sI15
S'myconf = AppConfig(reload=True)'
p2350
sI16
S''
sI17
S''
ssg2333
S'()'
p2351
sg2335
S'<module>'
p2352
sa(dp2353
g2312
S'/usr/lib/pymodules/python2.7/gluon/custom_import.py'
p2354
sg2314
(dp2355
S'fromlist'
p2356
S"('AppConfig',)"
p2357
sS'level'
p2358
S'-1'
p2359
ssg2320
I293
sg2321
(dp2360
I288
S'                            .__call__(modules_prefix+"."+name,'
p2361
sI289
S'                                    globals, locals, fromlist, level)'
p2362
sI290
S'                except ImportError:'
p2363
sI291
S'                    pass'
p2364
sI292
S'        return super(_Web2pyImporter, self).__call__(name, globals, locals,'
p2365
sI293
S'                                                    fromlist, level)'
p2366
sI294
S'        #except Exception, e:'
p2367
sI295
S"        #    raise e  # Don't hide something that went wrong"
p2368
sI296
S'        #finally:'
p2369
sI297
S'        self.end()'
p2370
ssg2333
S"(self=<gluon.custom_import._Web2pyImporter object>, name='gluon.contrib.appconfig', globals={'A': <class 'gluon.html.A'>, 'B': <class 'gluon.html.B'>, 'BEAUTIFY': <class 'gluon.html.BEAUTIFY'>, 'BODY': <class 'gluon.html.BODY'>, 'BR': <class 'gluon.html.BR'>, 'BUTTON': <class 'gluon.html.BUTTON'>, 'CAT': <class 'gluon.html.CAT'>, 'CENTER': <class 'gluon.html.CENTER'>, 'CLEANUP': <class 'gluon.validators.CLEANUP'>, 'CODE': <class 'gluon.html.CODE'>, ...}, locals={'A': <class 'gluon.html.A'>, 'B': <class 'gluon.html.B'>, 'BEAUTIFY': <class 'gluon.html.BEAUTIFY'>, 'BODY': <class 'gluon.html.BODY'>, 'BR': <class 'gluon.html.BR'>, 'BUTTON': <class 'gluon.html.BUTTON'>, 'CAT': <class 'gluon.html.CAT'>, 'CENTER': <class 'gluon.html.CENTER'>, 'CLEANUP': <class 'gluon.validators.CLEANUP'>, 'CODE': <class 'gluon.html.CODE'>, ...}, fromlist=('AppConfig',), level=-1)"
p2371
sg2335
S'__call__'
p2372
sa(dp2373
g2312
S'/usr/lib/pymodules/python2.7/gluon/custom_import.py'
p2374
sg2314
(dp2375
S'level'
p2376
S'-1'
p2377
ssg2320
I78
sg2321
(dp2378
I73
S'        """'
p2379
sI74
S'        return _STANDARD_PYTHON_IMPORTER(name,'
p2380
sI75
S'                                         globals,'
p2381
sI76
S'                                         locals,'
p2382
sI77
S'                                         fromlist,'
p2383
sI78
S'                                         level)'
p2384
sI79
S''
sI80
S'    def end(self):'
p2385
sI81
S'        """'
p2386
sI82
S'        Needed for clean up.'
p2387
ssg2333
S"(self=<gluon.custom_import._Web2pyImporter object>, name='gluon.contrib.appconfig', globals={'A': <class 'gluon.html.A'>, 'B': <class 'gluon.html.B'>, 'BEAUTIFY': <class 'gluon.html.BEAUTIFY'>, 'BODY': <class 'gluon.html.BODY'>, 'BR': <class 'gluon.html.BR'>, 'BUTTON': <class 'gluon.html.BUTTON'>, 'CAT': <class 'gluon.html.CAT'>, 'CENTER': <class 'gluon.html.CENTER'>, 'CLEANUP': <class 'gluon.validators.CLEANUP'>, 'CODE': <class 'gluon.html.CODE'>, ...}, locals={'A': <class 'gluon.html.A'>, 'B': <class 'gluon.html.B'>, 'BEAUTIFY': <class 'gluon.html.BEAUTIFY'>, 'BODY': <class 'gluon.html.BODY'>, 'BR': <class 'gluon.html.BR'>, 'BUTTON': <class 'gluon.html.BUTTON'>, 'CAT': <class 'gluon.html.CAT'>, 'CENTER': <class 'gluon.html.CENTER'>, 'CLEANUP': <class 'gluon.validators.CLEANUP'>, 'CODE': <class 'gluon.html.CODE'>, ...}, fromlist=('AppConfig',), level=-1)"
p2388
sg2335
g2372
sasS'pyver'
p2389
S'Python 2.7.10: /usr/bin/python'
p2390
sS'session'
p2391
g57
(g58
g59
NtRp2392
(dp2393
g62
(dp2394
sg64
(lp2395
g57
(g66
g59
NtRp2396
(dp2397
g62
(dp2398
g70
I5
ssg71
Nsg64
(lp2399
sbasbsS'etype'
p2400
S"<type 'exceptions.ImportError'>"
p2401
sS'date'
p2402
S'Sun Oct 25 10:30:31 2015'
p2403
sS'response'
p2404
g57
(g58
g59
NtRp2405
(dp2406
g62
(dp2407
sg64
(lp2408
g57
(g66
g59
NtRp2409
(dp2410
g62
(dp2411
g70
I5
ssg71
Nsg64
(lp2412
g57
(g73
g59
NtRp2413
(dp2414
g62
(dp2415
sg71
g2409
sg64
(lp2416
g57
(g78
g59
NtRp2417
(dp2418
g62
(dp2419
g82
g83
ssg71
g2413
sg64
(lp2420
g155
asbag57
(g78
g59
NtRp2421
(dp2422
g62
(dp2423
g89
g90
ssg71
g2413
sg64
(lp2424
S':'
asbag57
(g78
g59
NtRp2425
(dp2426
g62
(dp2427
sg71
g2413
sg64
(lp2428
g57
(g58
g59
NtRp2429
(dp2430
g62
(dp2431
g70
I5
ssg71
g2425
sg64
(lp2432
S'<cStringIO.StringO object at 0x7fed1c22aab0>'
p2433
asbasbasbag57
(g73
g59
NtRp2434
(dp2435
g62
(dp2436
sg71
g2409
sg64
(lp2437
g57
(g78
g59
NtRp2438
(dp2439
g62
(dp2440
g82
g83
ssg71
g2434
sg64
(lp2441
g221
asbag57
(g78
g59
NtRp2442
(dp2443
g62
(dp2444
g89
g90
ssg71
g2434
sg64
(lp2445
S':'
asbag57
(g78
g59
NtRp2446
(dp2447
g62
(dp2448
sg71
g2434
sg64
(lp2449
g57
(g58
g59
NtRp2450
(dp2451
g62
(dp2452
g70
I5
ssg71
g2446
sg64
(lp2453
g57
(g66
g59
NtRp2454
(dp2455
g62
(dp2456
g70
I4
ssg71
Nsg64
(lp2457
g57
(g73
g59
NtRp2458
(dp2459
g62
(dp2460
sg71
g2454
sg64
(lp2461
g57
(g78
g59
NtRp2462
(dp2463
g62
(dp2464
g82
g83
ssg71
g2458
sg64
(lp2465
S'session_id_welcome'
p2466
asbag57
(g78
g59
NtRp2467
(dp2468
g62
(dp2469
g89
g90
ssg71
g2458
sg64
(lp2470
S':'
asbag57
(g78
g59
NtRp2471
(dp2472
g62
(dp2473
sg71
g2458
sg64
(lp2474
g57
(g58
g59
NtRp2475
(dp2476
g62
(dp2477
g70
I4
ssg71
g2471
sg64
(lp2478
g57
(g66
g59
NtRp2479
(dp2480
g62
(dp2481
g70
I3
ssg71
Nsg64
(lp2482
g57
(g73
g59
NtRp2483
(dp2484
g62
(dp2485
sg71
g2479
sg64
(lp2486
g57
(g78
g59
NtRp2487
(dp2488
g62
(dp2489
g82
g83
ssg71
g2483
sg64
(lp2490
S'comment'
p2491
asbag57
(g78
g59
NtRp2492
(dp2493
g62
(dp2494
g89
g90
ssg71
g2483
sg64
(lp2495
S':'
asbag57
(g78
g59
NtRp2496
(dp2497
g62
(dp2498
sg71
g2483
sg64
(lp2499
g57
(g58
g59
NtRp2500
(dp2501
g62
(dp2502
g70
I3
ssg71
g2496
sg64
(lp2503
S''
asbasbasbag57
(g73
g59
NtRp2504
(dp2505
g62
(dp2506
sg71
g2479
sg64
(lp2507
g57
(g78
g59
NtRp2508
(dp2509
g62
(dp2510
g82
g83
ssg71
g2504
sg64
(lp2511
S'domain'
p2512
asbag57
(g78
g59
NtRp2513
(dp2514
g62
(dp2515
g89
g90
ssg71
g2504
sg64
(lp2516
S':'
asbag57
(g78
g59
NtRp2517
(dp2518
g62
(dp2519
sg71
g2504
sg64
(lp2520
g57
(g58
g59
NtRp2521
(dp2522
g62
(dp2523
g70
I3
ssg71
g2517
sg64
(lp2524
S''
asbasbasbag57
(g73
g59
NtRp2525
(dp2526
g62
(dp2527
sg71
g2479
sg64
(lp2528
g57
(g78
g59
NtRp2529
(dp2530
g62
(dp2531
g82
g83
ssg71
g2525
sg64
(lp2532
S'expires'
p2533
asbag57
(g78
g59
NtRp2534
(dp2535
g62
(dp2536
g89
g90
ssg71
g2525
sg64
(lp2537
S':'
asbag57
(g78
g59
NtRp2538
(dp2539
g62
(dp2540
sg71
g2525
sg64
(lp2541
g57
(g58
g59
NtRp2542
(dp2543
g62
(dp2544
g70
I3
ssg71
g2538
sg64
(lp2545
S''
asbasbasbag57
(g73
g59
NtRp2546
(dp2547
g62
(dp2548
sg71
g2479
sg64
(lp2549
g57
(g78
g59
NtRp2550
(dp2551
g62
(dp2552
g82
g83
ssg71
g2546
sg64
(lp2553
S'httponly'
p2554
asbag57
(g78
g59
NtRp2555
(dp2556
g62
(dp2557
g89
g90
ssg71
g2546
sg64
(lp2558
S':'
asbag57
(g78
g59
NtRp2559
(dp2560
g62
(dp2561
sg71
g2546
sg64
(lp2562
g57
(g58
g59
NtRp2563
(dp2564
g62
(dp2565
g70
I3
ssg71
g2559
sg64
(lp2566
S''
asbasbasbag57
(g73
g59
NtRp2567
(dp2568
g62
(dp2569
sg71
g2479
sg64
(lp2570
g57
(g78
g59
NtRp2571
(dp2572
g62
(dp2573
g82
g83
ssg71
g2567
sg64
(lp2574
S'max-age'
p2575
asbag57
(g78
g59
NtRp2576
(dp2577
g62
(dp2578
g89
g90
ssg71
g2567
sg64
(lp2579
S':'
asbag57
(g78
g59
NtRp2580
(dp2581
g62
(dp2582
sg71
g2567
sg64
(lp2583
g57
(g58
g59
NtRp2584
(dp2585
g62
(dp2586
g70
I3
ssg71
g2580
sg64
(lp2587
S''
asbasbasbag57
(g73
g59
NtRp2588
(dp2589
g62
(dp2590
sg71
g2479
sg64
(lp2591
g57
(g78
g59
NtRp2592
(dp2593
g62
(dp2594
g82
g83
ssg71
g2588
sg64
(lp2595
S'path'
p2596
asbag57
(g78
g59
NtRp2597
(dp2598
g62
(dp2599
g89
g90
ssg71
g2588
sg64
(lp2600
S':'
asbag57
(g78
g59
NtRp2601
(dp2602
g62
(dp2603
sg71
g2588
sg64
(lp2604
g57
(g58
g59
NtRp2605
(dp2606
g62
(dp2607
g70
I3
ssg71
g2601
sg64
(lp2608
S'/'
asbasbasbag57
(g73
g59
NtRp2609
(dp2610
g62
(dp2611
sg71
g2479
sg64
(lp2612
g57
(g78
g59
NtRp2613
(dp2614
g62
(dp2615
g82
g83
ssg71
g2609
sg64
(lp2616
S'secure'
p2617
asbag57
(g78
g59
NtRp2618
(dp2619
g62
(dp2620
g89
g90
ssg71
g2609
sg64
(lp2621
S':'
asbag57
(g78
g59
NtRp2622
(dp2623
g62
(dp2624
sg71
g2609
sg64
(lp2625
g57
(g58
g59
NtRp2626
(dp2627
g62
(dp2628
g70
I3
ssg71
g2622
sg64
(lp2629
S''
asbasbasbag57
(g73
g59
NtRp2630
(dp2631
g62
(dp2632
sg71
g2479
sg64
(lp2633
g57
(g78
g59
NtRp2634
(dp2635
g62
(dp2636
g82
g83
ssg71
g2630
sg64
(lp2637
S'version'
p2638
asbag57
(g78
g59
NtRp2639
(dp2640
g62
(dp2641
g89
g90
ssg71
g2630
sg64
(lp2642
S':'
asbag57
(g78
g59
NtRp2643
(dp2644
g62
(dp2645
sg71
g2630
sg64
(lp2646
g57
(g58
g59
NtRp2647
(dp2648
g62
(dp2649
g70
I3
ssg71
g2643
sg64
(lp2650
S''
asbasbasbasbasbasbasbasbasbasbasbag57
(g73
g59
NtRp2651
(dp2652
g62
(dp2653
sg71
g2409
sg64
(lp2654
g57
(g78
g59
NtRp2655
(dp2656
g62
(dp2657
g82
g83
ssg71
g2651
sg64
(lp2658
S'delimiters'
p2659
asbag57
(g78
g59
NtRp2660
(dp2661
g62
(dp2662
g89
g90
ssg71
g2651
sg64
(lp2663
S':'
asbag57
(g78
g59
NtRp2664
(dp2665
g62
(dp2666
sg71
g2651
sg64
(lp2667
g57
(g58
g59
NtRp2668
(dp2669
g62
(dp2670
g70
I5
ssg71
g2664
sg64
(lp2671
g57
(g66
g59
NtRp2672
(dp2673
g62
(dp2674
g70
I4
ssg71
Nsg64
(lp2675
g57
(g73
g59
NtRp2676
(dp2677
g62
(dp2678
sg71
g2672
sg64
(lp2679
g57
(g78
g59
NtRp2680
(dp2681
g62
(dp2682
sg71
g2676
sg64
(lp2683
g57
(g58
g59
NtRp2684
(dp2685
g62
(dp2686
g70
I4
ssg71
g2680
sg64
(lp2687
S'{{'
p2688
asbasbasbag57
(g73
g59
NtRp2689
(dp2690
g62
(dp2691
sg71
g2672
sg64
(lp2692
g57
(g78
g59
NtRp2693
(dp2694
g62
(dp2695
sg71
g2689
sg64
(lp2696
g57
(g58
g59
NtRp2697
(dp2698
g62
(dp2699
g70
I4
ssg71
g2693
sg64
(lp2700
S'}}'
p2701
asbasbasbasbasbasbasbag57
(g73
g59
NtRp2702
(dp2703
g62
(dp2704
sg71
g2409
sg64
(lp2705
g57
(g78
g59
NtRp2706
(dp2707
g62
(dp2708
g82
g83
ssg71
g2702
sg64
(lp2709
S'files'
p2710
asbag57
(g78
g59
NtRp2711
(dp2712
g62
(dp2713
g89
g90
ssg71
g2702
sg64
(lp2714
S':'
asbag57
(g78
g59
NtRp2715
(dp2716
g62
(dp2717
sg71
g2702
sg64
(lp2718
g57
(g58
g59
NtRp2719
(dp2720
g62
(dp2721
g70
I5
ssg71
g2715
sg64
(lp2722
g57
(g66
g59
NtRp2723
(dp2724
g62
(dp2725
g70
I4
ssg71
Nsg64
(lp2726
sbasbasbasbag57
(g73
g59
NtRp2727
(dp2728
g62
(dp2729
sg71
g2409
sg64
(lp2730
g57
(g78
g59
NtRp2731
(dp2732
g62
(dp2733
g82
g83
ssg71
g2727
sg64
(lp2734
S'flash'
p2735
asbag57
(g78
g59
NtRp2736
(dp2737
g62
(dp2738
g89
g90
ssg71
g2727
sg64
(lp2739
S':'
asbag57
(g78
g59
NtRp2740
(dp2741
g62
(dp2742
sg71
g2727
sg64
(lp2743
g57
(g58
g59
NtRp2744
(dp2745
g62
(dp2746
g70
I5
ssg71
g2740
sg64
(lp2747
S''
asbasbasbag57
(g73
g59
NtRp2748
(dp2749
g62
(dp2750
sg71
g2409
sg64
(lp2751
g57
(g78
g59
NtRp2752
(dp2753
g62
(dp2754
g82
g83
ssg71
g2748
sg64
(lp2755
S'generic_patterns'
p2756
asbag57
(g78
g59
NtRp2757
(dp2758
g62
(dp2759
g89
g90
ssg71
g2748
sg64
(lp2760
S':'
asbag57
(g78
g59
NtRp2761
(dp2762
g62
(dp2763
sg71
g2748
sg64
(lp2764
g57
(g58
g59
NtRp2765
(dp2766
g62
(dp2767
g70
I5
ssg71
g2761
sg64
(lp2768
g57
(g66
g59
NtRp2769
(dp2770
g62
(dp2771
g70
I4
ssg71
Nsg64
(lp2772
sbasbasbasbag57
(g73
g59
NtRp2773
(dp2774
g62
(dp2775
sg71
g2409
sg64
(lp2776
g57
(g78
g59
NtRp2777
(dp2778
g62
(dp2779
g82
g83
ssg71
g2773
sg64
(lp2780
S'headers'
p2781
asbag57
(g78
g59
NtRp2782
(dp2783
g62
(dp2784
g89
g90
ssg71
g2773
sg64
(lp2785
S':'
asbag57
(g78
g59
NtRp2786
(dp2787
g62
(dp2788
sg71
g2773
sg64
(lp2789
g57
(g58
g59
NtRp2790
(dp2791
g62
(dp2792
g70
I5
ssg71
g2786
sg64
(lp2793
g57
(g66
g59
NtRp2794
(dp2795
g62
(dp2796
g70
I4
ssg71
Nsg64
(lp2797
g57
(g73
g59
NtRp2798
(dp2799
g62
(dp2800
sg71
g2794
sg64
(lp2801
g57
(g78
g59
NtRp2802
(dp2803
g62
(dp2804
g82
g83
ssg71
g2798
sg64
(lp2805
S'Cache-Control'
p2806
asbag57
(g78
g59
NtRp2807
(dp2808
g62
(dp2809
g89
g90
ssg71
g2798
sg64
(lp2810
S':'
asbag57
(g78
g59
NtRp2811
(dp2812
g62
(dp2813
sg71
g2798
sg64
(lp2814
g57
(g58
g59
NtRp2815
(dp2816
g62
(dp2817
g70
I4
ssg71
g2811
sg64
(lp2818
S'no-store, no-cache, must-revalidate, post-check=0, pre-check=0'
p2819
asbasbasbag57
(g73
g59
NtRp2820
(dp2821
g62
(dp2822
sg71
g2794
sg64
(lp2823
g57
(g78
g59
NtRp2824
(dp2825
g62
(dp2826
g82
g83
ssg71
g2820
sg64
(lp2827
S'Content-Type'
p2828
asbag57
(g78
g59
NtRp2829
(dp2830
g62
(dp2831
g89
g90
ssg71
g2820
sg64
(lp2832
S':'
asbag57
(g78
g59
NtRp2833
(dp2834
g62
(dp2835
sg71
g2820
sg64
(lp2836
g57
(g58
g59
NtRp2837
(dp2838
g62
(dp2839
g70
I4
ssg71
g2833
sg64
(lp2840
S'text/html; charset=utf-8'
p2841
asbasbasbag57
(g73
g59
NtRp2842
(dp2843
g62
(dp2844
sg71
g2794
sg64
(lp2845
g57
(g78
g59
NtRp2846
(dp2847
g62
(dp2848
g82
g83
ssg71
g2842
sg64
(lp2849
S'Expires'
p2850
asbag57
(g78
g59
NtRp2851
(dp2852
g62
(dp2853
g89
g90
ssg71
g2842
sg64
(lp2854
S':'
asbag57
(g78
g59
NtRp2855
(dp2856
g62
(dp2857
sg71
g2842
sg64
(lp2858
g57
(g58
g59
NtRp2859
(dp2860
g62
(dp2861
g70
I4
ssg71
g2855
sg64
(lp2862
S'Dom, 25 Out 2015 12:30:30 GMT'
p2863
asbasbasbag57
(g73
g59
NtRp2864
(dp2865
g62
(dp2866
sg71
g2794
sg64
(lp2867
g57
(g78
g59
NtRp2868
(dp2869
g62
(dp2870
g82
g83
ssg71
g2864
sg64
(lp2871
S'Pragma'
p2872
asbag57
(g78
g59
NtRp2873
(dp2874
g62
(dp2875
g89
g90
ssg71
g2864
sg64
(lp2876
S':'
asbag57
(g78
g59
NtRp2877
(dp2878
g62
(dp2879
sg71
g2864
sg64
(lp2880
g57
(g58
g59
NtRp2881
(dp2882
g62
(dp2883
g70
I4
ssg71
g2877
sg64
(lp2884
S'no-cache'
p2885
asbasbasbag57
(g73
g59
NtRp2886
(dp2887
g62
(dp2888
sg71
g2794
sg64
(lp2889
g57
(g78
g59
NtRp2890
(dp2891
g62
(dp2892
g82
g83
ssg71
g2886
sg64
(lp2893
S'X-Powered-By'
p2894
asbag57
(g78
g59
NtRp2895
(dp2896
g62
(dp2897
g89
g90
ssg71
g2886
sg64
(lp2898
S':'
asbag57
(g78
g59
NtRp2899
(dp2900
g62
(dp2901
sg71
g2886
sg64
(lp2902
g57
(g58
g59
NtRp2903
(dp2904
g62
(dp2905
g70
I4
ssg71
g2899
sg64
(lp2906
S'web2py'
p2907
asbasbasbasbasbasbasbag57
(g73
g59
NtRp2908
(dp2909
g62
(dp2910
sg71
g2409
sg64
(lp2911
g57
(g78
g59
NtRp2912
(dp2913
g62
(dp2914
g82
g83
ssg71
g2908
sg64
(lp2915
S'menu'
p2916
asbag57
(g78
g59
NtRp2917
(dp2918
g62
(dp2919
g89
g90
ssg71
g2908
sg64
(lp2920
S':'
asbag57
(g78
g59
NtRp2921
(dp2922
g62
(dp2923
sg71
g2908
sg64
(lp2924
g57
(g58
g59
NtRp2925
(dp2926
g62
(dp2927
g70
I5
ssg71
g2921
sg64
(lp2928
g57
(g66
g59
NtRp2929
(dp2930
g62
(dp2931
g70
I4
ssg71
Nsg64
(lp2932
sbasbasbasbag57
(g73
g59
NtRp2933
(dp2934
g62
(dp2935
sg71
g2409
sg64
(lp2936
g57
(g78
g59
NtRp2937
(dp2938
g62
(dp2939
g82
g83
ssg71
g2933
sg64
(lp2940
S'meta'
p2941
asbag57
(g78
g59
NtRp2942
(dp2943
g62
(dp2944
g89
g90
ssg71
g2933
sg64
(lp2945
S':'
asbag57
(g78
g59
NtRp2946
(dp2947
g62
(dp2948
sg71
g2933
sg64
(lp2949
g57
(g58
g59
NtRp2950
(dp2951
g62
(dp2952
g70
I5
ssg71
g2946
sg64
(lp2953
g57
(g66
g59
NtRp2954
(dp2955
g62
(dp2956
g70
I4
ssg71
Nsg64
(lp2957
sbasbasbasbag57
(g73
g59
NtRp2958
(dp2959
g62
(dp2960
sg71
g2409
sg64
(lp2961
g57
(g78
g59
NtRp2962
(dp2963
g62
(dp2964
g82
g83
ssg71
g2958
sg64
(lp2965
S'postprocessing'
p2966
asbag57
(g78
g59
NtRp2967
(dp2968
g62
(dp2969
g89
g90
ssg71
g2958
sg64
(lp2970
S':'
asbag57
(g78
g59
NtRp2971
(dp2972
g62
(dp2973
sg71
g2958
sg64
(lp2974
g57
(g58
g59
NtRp2975
(dp2976
g62
(dp2977
g70
I5
ssg71
g2971
sg64
(lp2978
g57
(g66
g59
NtRp2979
(dp2980
g62
(dp2981
g70
I4
ssg71
Nsg64
(lp2982
sbasbasbasbag57
(g73
g59
NtRp2983
(dp2984
g62
(dp2985
sg71
g2409
sg64
(lp2986
g57
(g78
g59
NtRp2987
(dp2988
g62
(dp2989
g82
g83
ssg71
g2983
sg64
(lp2990
S'session_filename'
p2991
asbag57
(g78
g59
NtRp2992
(dp2993
g62
(dp2994
g89
g90
ssg71
g2983
sg64
(lp2995
S':'
asbag57
(g78
g59
NtRp2996
(dp2997
g62
(dp2998
sg71
g2983
sg64
(lp2999
g57
(g58
g59
NtRp3000
(dp3001
g62
(dp3002
g70
I5
ssg71
g2996
sg64
(lp3003
S'/home/janderson/web2py/applications/welcome/sessions/127.0.0.1-c06cf016-1d77-49a8-9146-c16af4d426cd'
p3004
asbasbasbag57
(g73
g59
NtRp3005
(dp3006
g62
(dp3007
sg71
g2409
sg64
(lp3008
g57
(g78
g59
NtRp3009
(dp3010
g62
(dp3011
g82
g83
ssg71
g3005
sg64
(lp3012
S'session_id'
p3013
asbag57
(g78
g59
NtRp3014
(dp3015
g62
(dp3016
g89
g90
ssg71
g3005
sg64
(lp3017
S':'
asbag57
(g78
g59
NtRp3018
(dp3019
g62
(dp3020
sg71
g3005
sg64
(lp3021
g57
(g58
g59
NtRp3022
(dp3023
g62
(dp3024
g70
I5
ssg71
g3018
sg64
(lp3025
S'127.0.0.1-c06cf016-1d77-49a8-9146-c16af4d426cd'
p3026
asbasbasbag57
(g73
g59
NtRp3027
(dp3028
g62
(dp3029
sg71
g2409
sg64
(lp3030
g57
(g78
g59
NtRp3031
(dp3032
g62
(dp3033
g82
g83
ssg71
g3027
sg64
(lp3034
S'session_id_name'
p3035
asbag57
(g78
g59
NtRp3036
(dp3037
g62
(dp3038
g89
g90
ssg71
g3027
sg64
(lp3039
S':'
asbag57
(g78
g59
NtRp3040
(dp3041
g62
(dp3042
sg71
g3027
sg64
(lp3043
g57
(g58
g59
NtRp3044
(dp3045
g62
(dp3046
g70
I5
ssg71
g3040
sg64
(lp3047
g2466
asbasbasbag57
(g73
g59
NtRp3048
(dp3049
g62
(dp3050
sg71
g2409
sg64
(lp3051
g57
(g78
g59
NtRp3052
(dp3053
g62
(dp3054
g82
g83
ssg71
g3048
sg64
(lp3055
S'session_new'
p3056
asbag57
(g78
g59
NtRp3057
(dp3058
g62
(dp3059
g89
g90
ssg71
g3048
sg64
(lp3060
S':'
asbag57
(g78
g59
NtRp3061
(dp3062
g62
(dp3063
sg71
g3048
sg64
(lp3064
g57
(g58
g59
NtRp3065
(dp3066
g62
(dp3067
g70
I5
ssg71
g3061
sg64
(lp3068
g1049
asbasbasbag57
(g73
g59
NtRp3069
(dp3070
g62
(dp3071
sg71
g2409
sg64
(lp3072
g57
(g78
g59
NtRp3073
(dp3074
g62
(dp3075
g82
g83
ssg71
g3069
sg64
(lp3076
S'status'
p3077
asbag57
(g78
g59
NtRp3078
(dp3079
g62
(dp3080
g89
g90
ssg71
g3069
sg64
(lp3081
S':'
asbag57
(g78
g59
NtRp3082
(dp3083
g62
(dp3084
sg71
g3069
sg64
(lp3085
g57
(g58
g59
NtRp3086
(dp3087
g62
(dp3088
g70
I5
ssg71
g3082
sg64
(lp3089
S'200'
p3090
asbasbasbag57
(g73
g59
NtRp3091
(dp3092
g62
(dp3093
sg71
g2409
sg64
(lp3094
g57
(g78
g59
NtRp3095
(dp3096
g62
(dp3097
g82
g83
ssg71
g3091
sg64
(lp3098
g1713
asbag57
(g78
g59
NtRp3099
(dp3100
g62
(dp3101
g89
g90
ssg71
g3091
sg64
(lp3102
S':'
asbag57
(g78
g59
NtRp3103
(dp3104
g62
(dp3105
sg71
g3091
sg64
(lp3106
g57
(g58
g59
NtRp3107
(dp3108
g62
(dp3109
g70
I5
ssg71
g3103
sg64
(lp3110
g1726
asbasbasbag57
(g73
g59
NtRp3111
(dp3112
g62
(dp3113
sg71
g2409
sg64
(lp3114
g57
(g78
g59
NtRp3115
(dp3116
g62
(dp3117
g82
g83
ssg71
g3111
sg64
(lp3118
S'view'
p3119
asbag57
(g78
g59
NtRp3120
(dp3121
g62
(dp3122
g89
g90
ssg71
g3111
sg64
(lp3123
S':'
asbag57
(g78
g59
NtRp3124
(dp3125
g62
(dp3126
sg71
g3111
sg64
(lp3127
g57
(g58
g59
NtRp3128
(dp3129
g62
(dp3130
g70
I5
ssg71
g3124
sg64
(lp3131
S'default/index.html'
p3132
asbasbasbasbasbsS'locals'
p3133
(dp3134
S'fromlist'
p3135
S"('AppConfig',)"
p3136
sS'name'
p3137
S"'gluon.contrib.appconfig'"
p3138
sg70
S'-1'
p3139
sS'self'
p3140
S'<gluon.custom_import._Web2pyImporter object>'
p3141
sS'globals'
p3142
S"{'A': <class 'gluon.html.A'>, 'B': <class 'gluon.html.B'>, 'BEAUTIFY': <class 'gluon.html.BEAUTIFY'>, 'BODY': <class 'gluon.html.BODY'>, 'BR': <class 'gluon.html.BR'>, 'BUTTON': <class 'gluon.html.BUTTON'>, 'CAT': <class 'gluon.html.CAT'>, 'CENTER': <class 'gluon.html.CENTER'>, 'CLEANUP': <class 'gluon.validators.CLEANUP'>, 'CODE': <class 'gluon.html.CODE'>, ...}"
p3143
sg3133
S"{'A': <class 'gluon.html.A'>, 'B': <class 'gluon.html.B'>, 'BEAUTIFY': <class 'gluon.html.BEAUTIFY'>, 'BODY': <class 'gluon.html.BODY'>, 'BR': <class 'gluon.html.BR'>, 'BUTTON': <class 'gluon.html.BUTTON'>, 'CAT': <class 'gluon.html.CAT'>, 'CENTER': <class 'gluon.html.CENTER'>, 'CLEANUP': <class 'gluon.validators.CLEANUP'>, 'CODE': <class 'gluon.html.CODE'>, ...}"
p3144
sssS'traceback'
p3145
S'Traceback (most recent call last):\n  File "/usr/lib/pymodules/python2.7/gluon/restricted.py", line 205, in restricted\n    exec ccode in environment\n  File "/home/janderson/web2py/applications/welcome/models/db.py", line 13, in <module>\n    from gluon.contrib.appconfig import AppConfig\n  File "/usr/lib/pymodules/python2.7/gluon/custom_import.py", line 293, in __call__\n    fromlist, level)\n  File "/usr/lib/pymodules/python2.7/gluon/custom_import.py", line 78, in __call__\n    level)\nImportError: No module named appconfig\n'
p3146
s.